Microchip Technology Inc, v1.25 (A)

Tool Name:
  /opt/microchip/xc16/v1.25/bin/bin/../bin/elf-ld

Command:
  -p24FJ128GB202 \
  -o \
  dist/default/production/EthernetENC28J60.X.production.elf \
  -L/opt/microchip/xc16/v1.25/bin/bin/.. \
  -L/opt/microchip/xc16/v1.25/bin/bin/../../lib \
  -L/opt/microchip/xc16/v1.25/bin/bin/../../support/PIC24E/gld \
  -L/opt/microchip/xc16/v1.25/bin/bin/../../support/PIC24F/gld \
  -L/opt/microchip/xc16/v1.25/bin/bin/../../support/PIC24H/gld \
  -L/opt/microchip/xc16/v1.25/bin/bin/../../support/dsPIC30F/gld \
  -L/opt/microchip/xc16/v1.25/bin/bin/../../support/dsPIC33E/gld \
  -L/opt/microchip/xc16/v1.25/bin/bin/../../support/dsPIC33F/gld \
  build/default/production/tcpip/src/arp.o \
  build/default/production/tcpip/src/common/delay.o \
  build/default/production/ENC28J60.o \
  build/default/production/tcpip/src/common/helpers.o \
  build/default/production/tcpip/src/icmp.o \
  build/default/production/tcpip/src/ip.o \
  build/default/production/tcpip/src/common/stack_task.o \
  build/default/production/tcpip/src/common/tick.o \
  build/default/production/tcpip/src/udp.o \
  build/default/production/tcpip/src/tcp.o \
  build/default/production/tcpip/src/dhcp_client.o \
  build/default/production/tcpip/src/telnet.o \
  build/default/production/usb_descriptors.o \
  build/default/production/usb/src/usb_device.o \
  build/default/production/usb/src/usb_device_generic.o \
  build/default/production/usb_fonctions.o \
  build/default/production/EthernetENCJ28J60.o \
  build/default/production/mcc_generated_files/pin_manager.o \
  build/default/production/tcpEtower.o \
  build/default/production/irtx.o \
  build/default/production/irrx.o \
  build/default/production/terminal.o \
  build/default/production/ir.o \
  --local-stack \
  --defsym=__MPLAB_BUILD=1 \
  -Tp24FJ128GB202.gld.00 \
  --stack=16 \
  --check-sections \
  --data-init \
  --pack-data \
  --handles \
  --isr \
  --no-gc-sections \
  --fill-upper=0 \
  --stackguard=16 \
  --no-force-link \
  --smart-io \
  -Map=dist/default/production/EthernetENC28J60.X.production.map \
  --report-mem \
  --memorysummary \
  dist/default/production/memoryfile.xml \
  -start-group \
  --library=pic30-elf \
  --library=m-elf \
  --library=c-elf \
  -end-group \


Optional library libpPIC24Fxxx.a not found
Archive member included because of file (symbol)

/opt/microchip/xc16/v1.25/bin/bin/../../lib/libpic30-elf.a(crt0_extended.o)
                              (__resetPRI)
/opt/microchip/xc16/v1.25/bin/bin/../../lib/libpic30-elf.a(data_init_extended.o)
                              /opt/microchip/xc16/v1.25/bin/bin/../../lib/libpic30-elf.a(crt0_extended.o) (__data_init_extended)
/opt/microchip/xc16/v1.25/bin/bin/../../lib/libm-elf.a(divmoddi3.eo)
                              build/default/production/tcpip/src/common/tick.o (___udivdi3)
/opt/microchip/xc16/v1.25/bin/bin/../../lib/libc-elf.a(memcpy.eo)
                              build/default/production/tcpip/src/arp.o (_memcpy)
/opt/microchip/xc16/v1.25/bin/bin/../../lib/libc-elf.a(memset.eo)
                              build/default/production/tcpip/src/udp.o (_memset)
/opt/microchip/xc16/v1.25/bin/bin/../../lib/libc-elf.a(printf.eo)
                              build/default/production/irrx.o (_printf)
/opt/microchip/xc16/v1.25/bin/bin/../../lib/libc-elf.a(puts.eo)
                              build/default/production/EthernetENCJ28J60.o (_puts)
/opt/microchip/xc16/v1.25/bin/bin/../../lib/libc-elf.a(strcat.eo)
                              build/default/production/irrx.o (_strcat)
/opt/microchip/xc16/v1.25/bin/bin/../../lib/libc-elf.a(strchr.eo)
                              build/default/production/terminal.o (_strchr)
/opt/microchip/xc16/v1.25/bin/bin/../../lib/libc-elf.a(strcmp.eo)
                              build/default/production/terminal.o (_strcmp)
/opt/microchip/xc16/v1.25/bin/bin/../../lib/libc-elf.a(strlen.eo)
                              build/default/production/tcpip/src/common/helpers.o (_strlen)
/opt/microchip/xc16/v1.25/bin/bin/../../lib/libc-elf.a(strncpy.eo)
                              build/default/production/tcpip/src/common/helpers.o (_strncpy)
/opt/microchip/xc16/v1.25/bin/bin/../../lib/libc-elf.a(_iob.eo)
                              /opt/microchip/xc16/v1.25/bin/bin/../../lib/libc-elf.a(printf.eo) (__iob)
/opt/microchip/xc16/v1.25/bin/bin/../../lib/libc-elf.a(sprintf_cdnopuxX.XXeo)
                              build/default/production/irrx.o (__sprintf_cdnopuxX)
/opt/microchip/xc16/v1.25/bin/bin/../../lib/libc-elf.a(sscanf_cdnopuxX.XXeo)
                              build/default/production/terminal.o (__sscanf_cdnopuxX)
/opt/microchip/xc16/v1.25/bin/bin/../../lib/libc-elf.a(doscan_cdnopuxX.XXeo)
                              /opt/microchip/xc16/v1.25/bin/bin/../../lib/libc-elf.a(sscanf_cdnopuxX.XXeo) (__vfscanf_cdnopuxX)
/opt/microchip/xc16/v1.25/bin/bin/../../lib/libc-elf.a(doprnt_cdnopuxX.XXeo)
                              /opt/microchip/xc16/v1.25/bin/bin/../../lib/libc-elf.a(sprintf_cdnopuxX.XXeo) (__vfprintf_cdnopuxX)
/opt/microchip/xc16/v1.25/bin/bin/../../lib/libc-elf.a(printf_cdnopuxX.XXeo)
                              build/default/production/EthernetENCJ28J60.o (__printf_cdnopuxX)
/opt/microchip/xc16/v1.25/bin/bin/../../lib/libc-elf.a(printf_cdnopsuxX.XXeo)
                              build/default/production/terminal.o (__printf_cdnopsuxX)
/opt/microchip/xc16/v1.25/bin/bin/../../lib/libc-elf.a(printf_s.XXeo)
                              build/default/production/terminal.o (__printf_s)
/opt/microchip/xc16/v1.25/bin/bin/../../lib/libc-elf.a(isalpha.eso)
                              /opt/microchip/xc16/v1.25/bin/bin/../../lib/libc-elf.a(doscan_cdnopuxX.XXeo) (_isalpha)
/opt/microchip/xc16/v1.25/bin/bin/../../lib/libc-elf.a(isspace.eso)
                              /opt/microchip/xc16/v1.25/bin/bin/../../lib/libc-elf.a(doscan_cdnopuxX.XXeo) (_isspace)
/opt/microchip/xc16/v1.25/bin/bin/../../lib/libc-elf.a(isupper.eso)
                              /opt/microchip/xc16/v1.25/bin/bin/../../lib/libc-elf.a(doscan_cdnopuxX.XXeo) (_isupper)
/opt/microchip/xc16/v1.25/bin/bin/../../lib/libc-elf.a(tolower.eso)
                              /opt/microchip/xc16/v1.25/bin/bin/../../lib/libc-elf.a(doscan_cdnopuxX.XXeo) (_tolower)
/opt/microchip/xc16/v1.25/bin/bin/../../lib/libc-elf.a(atoi.eo)
                              /opt/microchip/xc16/v1.25/bin/bin/../../lib/libc-elf.a(doscan_cdnopuxX.XXeo) (_atoi)
/opt/microchip/xc16/v1.25/bin/bin/../../lib/libc-elf.a(doprnt.eo)
                              /opt/microchip/xc16/v1.25/bin/bin/../../lib/libc-elf.a(printf.eo) (_vfprintf)
/opt/microchip/xc16/v1.25/bin/bin/../../lib/libc-elf.a(fgetc.eo)
                              /opt/microchip/xc16/v1.25/bin/bin/../../lib/libc-elf.a(doscan_cdnopuxX.XXeo) (_fgetc)
/opt/microchip/xc16/v1.25/bin/bin/../../lib/libc-elf.a(filbuf.eo)
                              /opt/microchip/xc16/v1.25/bin/bin/../../lib/libc-elf.a(fgetc.eo) (__filbuf)
/opt/microchip/xc16/v1.25/bin/bin/../../lib/libc-elf.a(fputc.eo)
                              /opt/microchip/xc16/v1.25/bin/bin/../../lib/libc-elf.a(puts.eo) (_fputc)
/opt/microchip/xc16/v1.25/bin/bin/../../lib/libc-elf.a(powers.eo)
                              /opt/microchip/xc16/v1.25/bin/bin/../../lib/libc-elf.a(doprnt.eo) (__powers_)
/opt/microchip/xc16/v1.25/bin/bin/../../lib/libc-elf.a(ungetc.eo)
                              /opt/microchip/xc16/v1.25/bin/bin/../../lib/libc-elf.a(doscan_cdnopuxX.XXeo) (_ungetc)
/opt/microchip/xc16/v1.25/bin/bin/../../lib/libc-elf.a(doprnt_cdnopsuxX.XXeo)
                              /opt/microchip/xc16/v1.25/bin/bin/../../lib/libc-elf.a(printf_cdnopsuxX.XXeo) (__vfprintf_cdnopsuxX)
/opt/microchip/xc16/v1.25/bin/bin/../../lib/libc-elf.a(doprnt_s.XXeo)
                              /opt/microchip/xc16/v1.25/bin/bin/../../lib/libc-elf.a(printf_s.XXeo) (__vfprintf_s)
/opt/microchip/xc16/v1.25/bin/bin/../../lib/libc-elf.a(fflush.eo)
                              /opt/microchip/xc16/v1.25/bin/bin/../../lib/libc-elf.a(filbuf.eo) (_fflush)
/opt/microchip/xc16/v1.25/bin/bin/../../lib/libc-elf.a(flsbuf.eo)
                              /opt/microchip/xc16/v1.25/bin/bin/../../lib/libc-elf.a(fputc.eo) (__flsbuf)
/opt/microchip/xc16/v1.25/bin/bin/../../lib/libpic30-elf.a(read.eo)
                              /opt/microchip/xc16/v1.25/bin/bin/../../lib/libc-elf.a(filbuf.eo) (_read)
/opt/microchip/xc16/v1.25/bin/bin/../../lib/libpic30-elf.a(write.eo)
                              /opt/microchip/xc16/v1.25/bin/bin/../../lib/libc-elf.a(fputc.eo) (_write)
/opt/microchip/xc16/v1.25/bin/bin/../../lib/libpic30-elf.a(c30_uart.eo)
                              /opt/microchip/xc16/v1.25/bin/bin/../../lib/libpic30-elf.a(read.eo) (___C30_UART)
/opt/microchip/xc16/v1.25/bin/bin/../../lib/libm-elf.a(adddf3.eo)
                              /opt/microchip/xc16/v1.25/bin/bin/../../lib/libc-elf.a(doprnt.eo) (___adddf3)
/opt/microchip/xc16/v1.25/bin/bin/../../lib/libm-elf.a(deqltle.eo)
                              /opt/microchip/xc16/v1.25/bin/bin/../../lib/libc-elf.a(doprnt.eo) (___ltdf2)
/opt/microchip/xc16/v1.25/bin/bin/../../lib/libm-elf.a(dgtge.eo)
                              /opt/microchip/xc16/v1.25/bin/bin/../../lib/libc-elf.a(doprnt.eo) (___gedf2)
/opt/microchip/xc16/v1.25/bin/bin/../../lib/libm-elf.a(divdf3.eo)
                              /opt/microchip/xc16/v1.25/bin/bin/../../lib/libc-elf.a(doprnt.eo) (___divdf3)
/opt/microchip/xc16/v1.25/bin/bin/../../lib/libm-elf.a(dne.eo)
                              /opt/microchip/xc16/v1.25/bin/bin/../../lib/libc-elf.a(doprnt.eo) (___nedf2)
/opt/microchip/xc16/v1.25/bin/bin/../../lib/libm-elf.a(dpack.eo)
                              /opt/microchip/xc16/v1.25/bin/bin/../../lib/libm-elf.a(adddf3.eo) (__dpack)
/opt/microchip/xc16/v1.25/bin/bin/../../lib/libm-elf.a(dunpack2.eo)
                              /opt/microchip/xc16/v1.25/bin/bin/../../lib/libm-elf.a(adddf3.eo) (__dunpack2)
/opt/microchip/xc16/v1.25/bin/bin/../../lib/libm-elf.a(extendsfdf.eo)
                              /opt/microchip/xc16/v1.25/bin/bin/../../lib/libc-elf.a(doprnt.eo) (___extendsfdf2)
/opt/microchip/xc16/v1.25/bin/bin/../../lib/libm-elf.a(fixunsdfdi.eo)
                              /opt/microchip/xc16/v1.25/bin/bin/../../lib/libc-elf.a(doprnt.eo) (___fixunsdfdi)
/opt/microchip/xc16/v1.25/bin/bin/../../lib/libm-elf.a(fixunsdfsi.eo)
                              /opt/microchip/xc16/v1.25/bin/bin/../../lib/libc-elf.a(doprnt.eo) (___fixunsdfsi)
/opt/microchip/xc16/v1.25/bin/bin/../../lib/libm-elf.a(floatundidf.eo)
                              /opt/microchip/xc16/v1.25/bin/bin/../../lib/libc-elf.a(doprnt.eo) (___floatundidf)
/opt/microchip/xc16/v1.25/bin/bin/../../lib/libm-elf.a(floatunsidf.eo)
                              /opt/microchip/xc16/v1.25/bin/bin/../../lib/libc-elf.a(doprnt.eo) (___floatunsidf)
/opt/microchip/xc16/v1.25/bin/bin/../../lib/libm-elf.a(frexp.eo)
                              /opt/microchip/xc16/v1.25/bin/bin/../../lib/libc-elf.a(doprnt.eo) (_frexpl)
/opt/microchip/xc16/v1.25/bin/bin/../../lib/libm-elf.a(funpack.eo)
                              /opt/microchip/xc16/v1.25/bin/bin/../../lib/libm-elf.a(extendsfdf.eo) (__funpack)
/opt/microchip/xc16/v1.25/bin/bin/../../lib/libm-elf.a(muldf3.eo)
                              /opt/microchip/xc16/v1.25/bin/bin/../../lib/libc-elf.a(doprnt.eo) (___muldf3)
/opt/microchip/xc16/v1.25/bin/bin/../../lib/libm-elf.a(subdf3.eo)
                              /opt/microchip/xc16/v1.25/bin/bin/../../lib/libc-elf.a(doprnt.eo) (___subdf3)
/opt/microchip/xc16/v1.25/bin/bin/../../lib/libm-elf.a(udivsi3.eo)
                              /opt/microchip/xc16/v1.25/bin/bin/../../lib/libc-elf.a(doprnt_cdnopuxX.XXeo) (___udivsi3)
/opt/microchip/xc16/v1.25/bin/bin/../../lib/libm-elf.a(mulsi3.eo)
                              /opt/microchip/xc16/v1.25/bin/bin/../../lib/libc-elf.a(doscan_cdnopuxX.XXeo) (___mulsi3)
/opt/microchip/xc16/v1.25/bin/bin/../../lib/libm-elf.a(muldi3.eo)
                              /opt/microchip/xc16/v1.25/bin/bin/../../lib/libc-elf.a(doprnt_cdnopuxX.XXeo) (___muldi3)
/opt/microchip/xc16/v1.25/bin/bin/../../lib/libm-elf.a(dcompare.eo)
                              /opt/microchip/xc16/v1.25/bin/bin/../../lib/libm-elf.a(deqltle.eo) (__dcompare)
/opt/microchip/xc16/v1.25/bin/bin/../../lib/libm-elf.a(dpropagateNaN.eo)
                              /opt/microchip/xc16/v1.25/bin/bin/../../lib/libm-elf.a(dunpack2.eo) (__dPropagateNaN)
/opt/microchip/xc16/v1.25/bin/bin/../../lib/libm-elf.a(dtype.eo)
                              /opt/microchip/xc16/v1.25/bin/bin/../../lib/libm-elf.a(dcompare.eo) (__dtype)
/opt/microchip/xc16/v1.25/bin/bin/../../lib/libm-elf.a(dunpack.eo)
                              /opt/microchip/xc16/v1.25/bin/bin/../../lib/libm-elf.a(dunpack2.eo) (__dunpack)
/opt/microchip/xc16/v1.25/bin/bin/../../lib/libm-elf.a(umuldi3.eo)
                              /opt/microchip/xc16/v1.25/bin/bin/../../lib/libm-elf.a(muldi3.eo) (___umuldi3)


xc16-ld 1.25 (A)

Program Memory  [Origin = 0x4200, Length = 0x111f8]

section                    address   length (PC units)   length (bytes) (dec)
-------                    -------   -----------------   --------------------
.text                       0x4200              0x3998          0x5664  (22116)
.text                       0x7b98              0x58f4          0x856e  (34158)
.dinit                      0xd48c               0x438           0x654  (1620)
.text                       0xd8c4              0x1a32          0x274b  (10059)
.const                     0x14dfe               0x5fa           0x8f7  (2295)

                     Total program memory used (bytes):        0x11268  (70248) 66%


Data Memory  [Origin = 0x1000, Length = 0x1800]

section                    address      alignment gaps    total length  (dec)
-------                    -------      --------------    -------------------
.nbss                       0x1000                   0            0x8a  (138)
.ndata                      0x108a                   0             0x4  (4)
.nbss                       0x108e                   0            0x12  (18)
.ndata                      0x10a0                   0             0x2  (2)
_0xf670fcf0573341a0         0x10a2                   0             0x2  (2)
_0xf669fa6c573341a0         0x10a4                   0             0x2  (2)
.ndata                      0x10a6                   0             0x2  (2)
.nbss                       0x10a8                   0             0x6  (6)
.ndata                      0x10ae                   0             0x4  (4)
.bss                        0x10b2                   0           0xc74  (3188)
.data                       0x1d26                   0           0x160  (352)
.bss                        0x1e86                   0           0x206  (518)
.data                       0x208c                   0           0x316  (790)
.bss                        0x23a2                   0            0x3a  (58)
.data                       0x23dc                   0            0x26  (38)
_0xf6736114573341a2         0x2600                   0            0x10  (16)
.bss                        0x2610                   0            0x9e  (158)
_0xf66afa6c5733419f         0x26ae                   0             0x6  (6)
.bss                        0x26b4                   0             0xe  (14)
.data                       0x26c2                   0             0x2  (2)

                        Total data memory used (bytes):         0x14c6  (5318) 86%


Dynamic Memory Usage

region                     address                      maximum length  (dec)
------                     -------                      ---------------------
heap                             0                                   0  (0)
stack                       0x2402                               0x1fe  (510)

                        Maximum dynamic memory (bytes):          0x1fe  (510)


External Symbols in Data Memory (by address):

                    0x1000                  _write_offset
                    0x1001                  _echo_offset
                    0x1002                  _read_offset
                    0x1004                  _irrx_stack_start
                    0x1006                  _irrx_stack_end
                    0x1008                  _irrx_raw_code_extract_ptr
                    0x100a                  _irrx_write_ptr
                    0x100c                  _irrx_lasttime
                    0x1010                  _irrx_echo_enabled
                    0x1011                  _irrx_sync_enabled
                    0x1012                  _irrx_verbose
                    0x1013                  _irrx_echo_busy
                    0x1014                  _irrx_echo_timestamp
                    0x1024                  _irtx_raw_offset
                    0x1025                  _tx_offset
                    0x1026                  _irtx_mode
                    0x1028                  _irtx_frequency
                    0x102a                  _irtx_duty
                    0x102c                  _irtxPhase
                    0x102e                  _irtxMaskBackup
                    0x1032                  _irtxNextDuty
                    0x1034                  _dutyOnValue
                    0x1038                  _USBDeviceState
                    0x103a                  _USBActiveConfiguration
                    0x103b                  _USBAlternateInterface
                    0x103c                  _pBDTEntryEP0OutCurrent
                    0x103e                  _pBDTEntryEP0OutNext
                    0x1040                  _pBDTEntryOut
                    0x1044                  _pBDTEntryIn
                    0x1048                  _shortPacketStatus
                    0x1049                  _controlTransferState
                    0x104a                  _pDst
                    0x104c                  _RemoteWakeup
                    0x104d                  _USBBusIsSuspended
                    0x104e                  _USTATcopy
                    0x104f                  _endpoint_number
                    0x1050                  _BothEP0OutUOWNsSet
                    0x1051                  _USBStatusStageTimeoutCounter
                    0x1052                  _USBDeferStatusStagePacket
                    0x1053                  _USBStatusStageEnabledFlag1
                    0x1054                  _USBStatusStageEnabledFlag2
                    0x1055                  _USBDeferINDataStagePackets
                    0x1056                  _USBDeferOUTDataStagePackets
                    0x1058                  _activeUDPSocket
                    0x105a                  _UDPTxCount
                    0x105c                  _UDPRxCount
                    0x1064                  _length
                    0x1065                  _queueWriteOffset
                    0x1066                  _queueNextWriteOffset
                    0x1082                  _terminal_current_string
                    0x1084                  _terminal_next_string
                    0x1086                  _terminal_position
                    0x1088                  _terminal_count
                    0x109a                  _result
                    0x10a8                  _DHCPClientInitializedOnce
                    0x10ae                  _MySocket
                    0x10b0                  _irrx_is_timeout
                    0x10b2                  _rx_stack
                    0x14b2                  _irrxString
                    0x15b2                  _irrx_echo_rawcode
                    0x18d6                  _myString
                    0x18f4                  _USB_In_Stack
                    0x1b78                  _irtx_raw_code
                    0x1d0a                  _irtxParameters
                    0x1d26                  __powers_
                    0x1dd6                  __npowers_
                    0x1f8c                  _terminal_line
                    0x23a2                  _AppConfig
                    0x23d6                  _broadcast
                    0x23dc                  __iob
                    0x2400                  __Files
                    0x2600                  _BDT
                    0x2610                  _UDPSocketInfo
                    0x2664                  _inPipes
                    0x266a                  _outPipes
                    0x2671                  _ep_data_in
                    0x2673                  _ep_data_out
                    0x2675                  _SetupPkt
                    0x267d                  _CtrlTrfData
                    0x26a4                  _remoteNode
                    0x26ba                  __outdone
                    0x26bb                  __sibuf
                    0x26bd                  __sobuf
                    0x26c2                  ___C30_UART

External Symbols in Data Memory (by name):

                    0x23a2                  _AppConfig
                    0x2600                  _BDT
                    0x1050                  _BothEP0OutUOWNsSet
                    0x267d                  _CtrlTrfData
                    0x10a8                  _DHCPClientInitializedOnce
                    0x10ae                  _MySocket
                    0x104c                  _RemoteWakeup
                    0x2675                  _SetupPkt
                    0x105c                  _UDPRxCount
                    0x2610                  _UDPSocketInfo
                    0x105a                  _UDPTxCount
                    0x103a                  _USBActiveConfiguration
                    0x103b                  _USBAlternateInterface
                    0x104d                  _USBBusIsSuspended
                    0x1055                  _USBDeferINDataStagePackets
                    0x1056                  _USBDeferOUTDataStagePackets
                    0x1052                  _USBDeferStatusStagePacket
                    0x1038                  _USBDeviceState
                    0x1053                  _USBStatusStageEnabledFlag1
                    0x1054                  _USBStatusStageEnabledFlag2
                    0x1051                  _USBStatusStageTimeoutCounter
                    0x18f4                  _USB_In_Stack
                    0x104e                  _USTATcopy
                    0x2400                  __Files
                    0x26c2                  ___C30_UART
                    0x23dc                  __iob
                    0x1dd6                  __npowers_
                    0x26ba                  __outdone
                    0x1d26                  __powers_
                    0x26bb                  __sibuf
                    0x26bd                  __sobuf
                    0x1058                  _activeUDPSocket
                    0x23d6                  _broadcast
                    0x1049                  _controlTransferState
                    0x1034                  _dutyOnValue
                    0x1001                  _echo_offset
                    0x104f                  _endpoint_number
                    0x2671                  _ep_data_in
                    0x2673                  _ep_data_out
                    0x2664                  _inPipes
                    0x14b2                  _irrxString
                    0x1013                  _irrx_echo_busy
                    0x1010                  _irrx_echo_enabled
                    0x15b2                  _irrx_echo_rawcode
                    0x1014                  _irrx_echo_timestamp
                    0x10b0                  _irrx_is_timeout
                    0x100c                  _irrx_lasttime
                    0x1008                  _irrx_raw_code_extract_ptr
                    0x1006                  _irrx_stack_end
                    0x1004                  _irrx_stack_start
                    0x1011                  _irrx_sync_enabled
                    0x1012                  _irrx_verbose
                    0x100a                  _irrx_write_ptr
                    0x102e                  _irtxMaskBackup
                    0x1032                  _irtxNextDuty
                    0x1d0a                  _irtxParameters
                    0x102c                  _irtxPhase
                    0x102a                  _irtx_duty
                    0x1028                  _irtx_frequency
                    0x1026                  _irtx_mode
                    0x1b78                  _irtx_raw_code
                    0x1024                  _irtx_raw_offset
                    0x1064                  _length
                    0x18d6                  _myString
                    0x266a                  _outPipes
                    0x103c                  _pBDTEntryEP0OutCurrent
                    0x103e                  _pBDTEntryEP0OutNext
                    0x1044                  _pBDTEntryIn
                    0x1040                  _pBDTEntryOut
                    0x104a                  _pDst
                    0x1066                  _queueNextWriteOffset
                    0x1065                  _queueWriteOffset
                    0x1002                  _read_offset
                    0x26a4                  _remoteNode
                    0x109a                  _result
                    0x10b2                  _rx_stack
                    0x1048                  _shortPacketStatus
                    0x1088                  _terminal_count
                    0x1082                  _terminal_current_string
                    0x1f8c                  _terminal_line
                    0x1084                  _terminal_next_string
                    0x1086                  _terminal_position
                    0x1025                  _tx_offset
                    0x1000                  _write_offset

External Symbols in Program Memory (by address):

                  0x004200                  __resetPRI
                  0x00422c                  __psv_init
                  0x004238                  __data_init_extended
                  0x004238                  __data_init
                  0x0042d2                  __DefaultInterrupt
                  0x0042d6                  _isalpha
                  0x0042ea                  _isspace
                  0x0042fa                  _isupper
                  0x004306                  _tolower
                  0x004428                  ___udivmoddi3
                  0x00450e                  ___udivdi3
                  0x00451c                  ___umoddi3
                  0x004524                  ___divdi3
                  0x004584                  ___moddi3
                  0x0045e0                  _memcpy
                  0x0045ee                  _memset
                  0x0045fc                  _printf
                  0x00460a                  _fputs
                  0x004626                  _puts
                  0x00463a                  _strcat
                  0x00464e                  _strchr
                  0x004662                  _strcmp
                  0x004670                  _strlen
                  0x00467c                  _strncpy
                  0x00469e                  __sprintf_cdnopuxX
                  0x0046ca                  __sscanf_cdnopuxX
                  0x00474a                  __vfscanf_cdnopuxX
                  0x004a4a                  __vfprintf_cdnopuxX
                  0x0050fe                  __printf_cdnopuxX
                  0x00510c                  __printf_cdnopsuxX
                  0x00511a                  __printf_0
                  0x00511a                  __printf_s
                  0x005128                  _atoi
                  0x0052f6                  _vfprintf
                  0x006648                  _fgetc
                  0x0066aa                  __filbuf
                  0x0067c8                  _ungetc
                  0x006818                  __vfprintf_cdnopsuxX
                  0x006ede                  __vfprintf_s
                  0x006ede                  __vfprintf_0
                  0x00742e                  _fflush
                  0x007508                  ___adddf3
                  0x007602                  ___ledf2
                  0x007602                  ___eqdf2
                  0x007602                  ___ltdf2
                  0x00760c                  ___gedf2
                  0x00760c                  ___gtdf2
                  0x007616                  ___divdf3
                  0x0076ca                  ___nedf2
                  0x0076d4                  __dpack
                  0x00772c                  __dunpack2
                  0x00774e                  __dreturnNaN
                  0x007754                  __dunpack2exit
                  0x00775e                  ___extendsfdf2
                  0x00779c                  ___fixunsdfdi
                  0x0077fe                  ___fixunsdfsi
                  0x00784a                  ___floatundidf
                  0x0078a0                  ___floatunsidf
                  0x0078a4                  _frexpl
                  0x0078a4                  _frexp
                  0x0078de                  __funpack
                  0x007908                  ___muldf3
                  0x0079f2                  ___subdf3
                  0x0079f6                  ___udivsi3
                  0x007a16                  ___mulp32eds3
                  0x007a16                  ___mulp32peds3
                  0x007a16                  ___mulsi3
                  0x007a22                  ___muldi3
                  0x007a74                  __dcompare
                  0x007ac6                  __dPropagateNaN
                  0x007ae2                  __dtype
                  0x007b06                  __dunpack
                  0x007b54                  ___umuldi3
                  0x007c42                  _TCPInit
                  0x007d0c                  _TCPOpen
                  0x007e1e                  _TCPWasReset
                  0x007e4a                  _TCPIsConnected
                  0x007e6e                  _TCPDisconnect
                  0x007f02                  _TCPClose
                  0x007f22                  _TCPGetRemoteInfo
                  0x007f48                  _TCPFlush
                  0x007f6e                  _TCPIsPutReady
                  0x007fba                  _TCPPut
                  0x008052                  _TCPPutArray
                  0x008124                  _TCPPutString
                  0x00813e                  _TCPGetTxFIFOFull
                  0x008166                  _TCPDiscard
                  0x008184                  _TCPIsGetReady
                  0x0081ba                  _TCPGet
                  0x00822a                  _TCPGetArray
                  0x0082ea                  _TCPGetRxFIFOFree
                  0x008310                  _TCPPeekArray
                  0x0083b2                  _TCPPeek
                  0x0083c8                  _TCPFindArrayEx
                  0x008638                  _TCPFindEx
                  0x008658                  _TCPTick
                  0x008aa6                  _TCPProcess
                  0x009ba8                  _TCPAdjustFIFOSize
                  0x009d94                  _USBDeviceInit
                  0x009e7c                  _USBDeviceTasks
                  0x009fd4                  _USBEnableEndpoint
                  0x00a00e                  _USBTransferOnePacket
                  0x00a0bc                  _USBStallEndpoint
                  0x00a12a                  _USBCancelIO
                  0x00a192                  _USBCtrlEPAllowStatusStage
                  0x00a1ea                  _USBCtrlEPAllowDataStage
                  0x00abce                  _MACInit
                  0x00acfe                  _MACIsLinked
                  0x00ad1c                  _MACIsTxReady
                  0x00ad34                  _MACDiscardRx
                  0x00ad70                  _MACGetFreeRxSize
                  0x00adee                  _MACGetHeader
                  0x00ae8c                  _MACPutHeader
                  0x00aede                  _MACFlush
                  0x00b008                  _MACSetReadPtrInRx
                  0x00b03a                  _MACSetWritePtr
                  0x00b06c                  _MACSetReadPtr
                  0x00b09e                  _MACCalcRxChecksum
                  0x00b0fe                  _CalcIPBufferChecksum
                  0x00b1aa                  _MACMemCopyAsync
                  0x00b392                  _MACIsMemCopyDone
                  0x00b3aa                  _MACGet
                  0x00b3da                  _MACGetArray
                  0x00b4b2                  _MACPut
                  0x00b4ea                  _MACPutArray
                  0x00b692                  _ReadPHYReg
                  0x00b7ce                  _WritePHYReg
                  0x00b826                  _MACPowerDown
                  0x00b858                  _MACPowerUp
                  0x00b87a                  _SetCLKOUT
                  0x00b890                  _GetCLKOUT
                  0x00b8aa                  _DHCPInit
                  0x00b904                  _DHCPDisable
                  0x00b924                  _DHCPEnable
                  0x00b944                  _DHCPIsEnabled
                  0x00b958                  _DHCPIsBound
                  0x00b970                  _DHCPStateChanged
                  0x00b98c                  _DHCPIsServerDetected
                  0x00b9a6                  _DHCPTempIPAddr
                  0x00b9e8                  _DHCPTask
                  0x00c22e                  _LFSRSeedRand
                  0x00c26e                  _LFSRRand
                  0x00c2dc                  _GenerateRandomDWORD
                  0x00c3c6                  _StringToIPAddress
                  0x00c542                  _uitoa
                  0x00c5c4                  _hexatob
                  0x00c62c                  _btohexa_high
                  0x00c64a                  _btohexa_low
                  0x00c666                  _stricmppgm2ram
                  0x00c6fc                  _swaps
                  0x00c716                  _swapl
                  0x00c774                  _CalcIPChecksum
                  0x00c7f4                  _strupr
                  0x00c832                  _FormatNetBIOSName
                  0x00c876                  _strnchr
                  0x00c8c2                  _strncpy_m
                  0x00c936                  _UDPInit
                  0x00c950                  _UDPOpenEx
                  0x00ca1c                  _UDPTask
                  0x00cb58                  _UDPIsOpened
                  0x00cb7a                  _UDPClose
                  0x00cbb6                  _UDPSetTxBuffer
                  0x00cbc8                  _UDPSetRxBuffer
                  0x00cbda                  _UDPIsPutReady
                  0x00cc0c                  _UDPPut
                  0x00cc38                  _UDPPutArray
                  0x00cc70                  _UDPPutString
                  0x00cc84                  _UDPFlush
                  0x00ccd0                  _UDPIsGetReady
                  0x00ccfc                  _UDPGet
                  0x00cd28                  _UDPGetArray
                  0x00cd6c                  _UDPDiscard
                  0x00cd84                  _UDPProcess
                  0x00cf0a                  _irrx_init
                  0x00cf20                  _irrx_task
                  0x00cf80                  _irrx_int
                  0x00cfa0                  _irrx_append_data_stack
                  0x00cfc6                  _irrx_get_duration
                  0x00d01e                  _irrx_get_time_elapsed
                  0x00d02a                  _irrx_get_time_elapsed_since
                  0x00d07e                  _irrx_print_fifo
                  0x00d0ee                  _irrx_reset_data_text
                  0x00d104                  _irrx_flush_data_text
                  0x00d122                  _irrx_append_data_text
                  0x00d15a                  _irrx_flush_data_code
                  0x00d176                  _irrx_set_verbose
                  0x00d184                  _irrx_set_echo
                  0x00d192                  _irrx_set_sync
                  0x00d1a0                  _ir_sync_rx_tx
                  0x00d1b4                  _irrx_decode
                  0x00d272                  _irrx_decode_space_encoded
                  0x00d2f6                  _irrx_echo
                  0x00d312                  _irrx_extract_raw_code
                  0x00d3f2                  _irrx_handle_raw_code
                  0x00d412                  _ir_echo_rawcode_init
                  0x00d442                  _ir_echo_rawcode_task
                  0x00d8c4                  _terminal_exec
                  0x00d922                  _terminal_extract_string
                  0x00d950                  _terminal_serialize
                  0x00d9b6                  _terminal_flush
                  0x00d9ca                  _terminal_reset_line
                  0x00d9f0                  _terminal_level2_led
                  0x00da86                  _terminal_level2_irrx
                  0x00dada                  _terminal_level3_irrx_verbose
                  0x00db02                  _terminal_level3_irrx_set_sync
                  0x00db40                  _terminal_level2_irtx
                  0x00dba2                  _terminal_level3_irtx_set_frequency
                  0x00dbfc                  _terminal_level3_irtx_send_raw
                  0x00dc50                  _ARPSendPkt
                  0x00dd04                  _ARPInit
                  0x00dd36                  _ARPProcess
                  0x00ddfc                  _ARPResolve
                  0x00deae                  _ARPIsResolved
                  0x00df5c                  _SwapARPPacket
                  0x00df82                  _usbRx
                  0x00e06c                  _stackUSBPacket
                  0x00e0ca                  _usbTx
                  0x00e14c                  _copyArray
                  0x00e188                  _usbPrint
                  0x00e1da                  _USBCBSuspend
                  0x00e1e0                  _USBCBWakeFromSuspend
                  0x00e1e6                  _USBCB_SOF_Handler
                  0x00e1ec                  _USBCBErrorHandler
                  0x00e1f2                  _USBCBCheckOtherReq
                  0x00e1f8                  _USBCBStdSetDscHandler
                  0x00e1fe                  _USBCBInitEP
                  0x00e20a                  _USBCBSendResume
                  0x00e246                  _USER_USB_CALLBACK_EVENT_HANDLER
                  0x00e290                  _irtxInit
                  0x00e2a0                  _irtx_on
                  0x00e2aa                  _irtx_off
                  0x00e2b2                  _irtxSend
                  0x00e2fc                  _irtx_send_raw_code
                  0x00e324                  _intIrTx
                  0x00e340                  _irtx_int_space_code
                  0x00e4bc                  _irtx_int_raw_code
                  0x00e542                  _irtx_set_frequency_duty
                  0x00e570                  _TelnetTask
                  0x00e7fe                  _StackInit
                  0x00e838                  _StackTask
                  0x00ea56                  _StackApplications
                  0x00ea5e                  _ICMPProcess
                  0x00eb26                  _ICMPSendPing
                  0x00eb40                  _ICMPGetReply
                  0x00ec08                  _ICMPBeginUsage
                  0x00ec1e                  _ICMPEndUsage
                  0x00ec26                  _IPGetHeader
                  0x00ecd8                  _IPPutHeader
                  0x00ed72                  _IPSetRxBuffer
                  0x00eda8                  _main
                  0x00ee28                  _heartBeat
                  0x00ee5c                  _userHandlePacket
                  0x00eec6                  __T3Interrupt
                  0x00eef4                  __IC1Interrupt
                  0x00ef22                  _TickInit
                  0x00efa6                  _TickGet
                  0x00efd6                  _TickGetDiv256
                  0x00f006                  _TickGetDiv64K
                  0x00f036                  _TickConvertToMilliseconds
                  0x00f05a                  __T1Interrupt
                  0x00f072                  _PIN_MANAGER_Initialize
                  0x00f16a                  _eTowerTCPServerInit
                  0x00f174                  _eTowerTCPServer
                  0x00f1e0                  _eTowerTCPPrint
                  0x00f1f8                  _eTowerTxAvailable
                  0x00f202                  _ir_print_raw_code
                  0x00f28a                  _DelayMs
                  0x00f2c4                  _Delay10us
                  0x015256                  _device_dsc
                  0x015268                  _configDescriptor1
                  0x015288                  _sd000
                  0x01528c                  _sd001
                  0x0152aa                  _sd002
                  0x0152ce                  _USB_CD_Ptr
                  0x0152d0                  _USB_SD_Ptr
                  0x0153d0                  _TCPSocketInitializer

External Symbols in Program Memory (by name):

                  0x00dd04                  _ARPInit
                  0x00deae                  _ARPIsResolved
                  0x00dd36                  _ARPProcess
                  0x00ddfc                  _ARPResolve
                  0x00dc50                  _ARPSendPkt
                  0x00b0fe                  _CalcIPBufferChecksum
                  0x00c774                  _CalcIPChecksum
                  0x00b904                  _DHCPDisable
                  0x00b924                  _DHCPEnable
                  0x00b8aa                  _DHCPInit
                  0x00b958                  _DHCPIsBound
                  0x00b944                  _DHCPIsEnabled
                  0x00b98c                  _DHCPIsServerDetected
                  0x00b970                  _DHCPStateChanged
                  0x00b9e8                  _DHCPTask
                  0x00b9a6                  _DHCPTempIPAddr
                  0x00f2c4                  _Delay10us
                  0x00f28a                  _DelayMs
                  0x00c832                  _FormatNetBIOSName
                  0x00c2dc                  _GenerateRandomDWORD
                  0x00b890                  _GetCLKOUT
                  0x00ec08                  _ICMPBeginUsage
                  0x00ec1e                  _ICMPEndUsage
                  0x00eb40                  _ICMPGetReply
                  0x00ea5e                  _ICMPProcess
                  0x00eb26                  _ICMPSendPing
                  0x00ec26                  _IPGetHeader
                  0x00ecd8                  _IPPutHeader
                  0x00ed72                  _IPSetRxBuffer
                  0x00c26e                  _LFSRRand
                  0x00c22e                  _LFSRSeedRand
                  0x00b09e                  _MACCalcRxChecksum
                  0x00ad34                  _MACDiscardRx
                  0x00aede                  _MACFlush
                  0x00b3aa                  _MACGet
                  0x00b3da                  _MACGetArray
                  0x00ad70                  _MACGetFreeRxSize
                  0x00adee                  _MACGetHeader
                  0x00abce                  _MACInit
                  0x00acfe                  _MACIsLinked
                  0x00b392                  _MACIsMemCopyDone
                  0x00ad1c                  _MACIsTxReady
                  0x00b1aa                  _MACMemCopyAsync
                  0x00b826                  _MACPowerDown
                  0x00b858                  _MACPowerUp
                  0x00b4b2                  _MACPut
                  0x00b4ea                  _MACPutArray
                  0x00ae8c                  _MACPutHeader
                  0x00b06c                  _MACSetReadPtr
                  0x00b008                  _MACSetReadPtrInRx
                  0x00b03a                  _MACSetWritePtr
                  0x00f072                  _PIN_MANAGER_Initialize
                  0x00b692                  _ReadPHYReg
                  0x00b87a                  _SetCLKOUT
                  0x00ea56                  _StackApplications
                  0x00e7fe                  _StackInit
                  0x00e838                  _StackTask
                  0x00c3c6                  _StringToIPAddress
                  0x00df5c                  _SwapARPPacket
                  0x009ba8                  _TCPAdjustFIFOSize
                  0x007f02                  _TCPClose
                  0x008166                  _TCPDiscard
                  0x007e6e                  _TCPDisconnect
                  0x0083c8                  _TCPFindArrayEx
                  0x008638                  _TCPFindEx
                  0x007f48                  _TCPFlush
                  0x0081ba                  _TCPGet
                  0x00822a                  _TCPGetArray
                  0x007f22                  _TCPGetRemoteInfo
                  0x0082ea                  _TCPGetRxFIFOFree
                  0x00813e                  _TCPGetTxFIFOFull
                  0x007c42                  _TCPInit
                  0x007e4a                  _TCPIsConnected
                  0x008184                  _TCPIsGetReady
                  0x007f6e                  _TCPIsPutReady
                  0x007d0c                  _TCPOpen
                  0x0083b2                  _TCPPeek
                  0x008310                  _TCPPeekArray
                  0x008aa6                  _TCPProcess
                  0x007fba                  _TCPPut
                  0x008052                  _TCPPutArray
                  0x008124                  _TCPPutString
                  0x0153d0                  _TCPSocketInitializer
                  0x008658                  _TCPTick
                  0x007e1e                  _TCPWasReset
                  0x00e570                  _TelnetTask
                  0x00f036                  _TickConvertToMilliseconds
                  0x00efa6                  _TickGet
                  0x00efd6                  _TickGetDiv256
                  0x00f006                  _TickGetDiv64K
                  0x00ef22                  _TickInit
                  0x00cb7a                  _UDPClose
                  0x00cd6c                  _UDPDiscard
                  0x00cc84                  _UDPFlush
                  0x00ccfc                  _UDPGet
                  0x00cd28                  _UDPGetArray
                  0x00c936                  _UDPInit
                  0x00ccd0                  _UDPIsGetReady
                  0x00cb58                  _UDPIsOpened
                  0x00cbda                  _UDPIsPutReady
                  0x00c950                  _UDPOpenEx
                  0x00cd84                  _UDPProcess
                  0x00cc0c                  _UDPPut
                  0x00cc38                  _UDPPutArray
                  0x00cc70                  _UDPPutString
                  0x00cbc8                  _UDPSetRxBuffer
                  0x00cbb6                  _UDPSetTxBuffer
                  0x00ca1c                  _UDPTask
                  0x00e1f2                  _USBCBCheckOtherReq
                  0x00e1ec                  _USBCBErrorHandler
                  0x00e1fe                  _USBCBInitEP
                  0x00e20a                  _USBCBSendResume
                  0x00e1f8                  _USBCBStdSetDscHandler
                  0x00e1da                  _USBCBSuspend
                  0x00e1e0                  _USBCBWakeFromSuspend
                  0x00e1e6                  _USBCB_SOF_Handler
                  0x00a12a                  _USBCancelIO
                  0x00a1ea                  _USBCtrlEPAllowDataStage
                  0x00a192                  _USBCtrlEPAllowStatusStage
                  0x009d94                  _USBDeviceInit
                  0x009e7c                  _USBDeviceTasks
                  0x009fd4                  _USBEnableEndpoint
                  0x00a0bc                  _USBStallEndpoint
                  0x00a00e                  _USBTransferOnePacket
                  0x0152ce                  _USB_CD_Ptr
                  0x0152d0                  _USB_SD_Ptr
                  0x00e246                  _USER_USB_CALLBACK_EVENT_HANDLER
                  0x00b7ce                  _WritePHYReg
                  0x0042d2                  __DefaultInterrupt
                  0x00eef4                  __IC1Interrupt
                  0x00f05a                  __T1Interrupt
                  0x00eec6                  __T3Interrupt
                  0x007508                  ___adddf3
                  0x007616                  ___divdf3
                  0x004524                  ___divdi3
                  0x007602                  ___eqdf2
                  0x00775e                  ___extendsfdf2
                  0x00779c                  ___fixunsdfdi
                  0x0077fe                  ___fixunsdfsi
                  0x00784a                  ___floatundidf
                  0x0078a0                  ___floatunsidf
                  0x00760c                  ___gedf2
                  0x00760c                  ___gtdf2
                  0x007602                  ___ledf2
                  0x007602                  ___ltdf2
                  0x004584                  ___moddi3
                  0x007908                  ___muldf3
                  0x007a22                  ___muldi3
                  0x007a16                  ___mulp32eds3
                  0x007a16                  ___mulp32peds3
                  0x007a16                  ___mulsi3
                  0x0076ca                  ___nedf2
                  0x0079f2                  ___subdf3
                  0x00450e                  ___udivdi3
                  0x004428                  ___udivmoddi3
                  0x0079f6                  ___udivsi3
                  0x00451c                  ___umoddi3
                  0x007b54                  ___umuldi3
                  0x007ac6                  __dPropagateNaN
                  0x004238                  __data_init
                  0x004238                  __data_init_extended
                  0x007a74                  __dcompare
                  0x0076d4                  __dpack
                  0x00774e                  __dreturnNaN
                  0x007ae2                  __dtype
                  0x007b06                  __dunpack
                  0x00772c                  __dunpack2
                  0x007754                  __dunpack2exit
                  0x0066aa                  __filbuf
                  0x0078de                  __funpack
                  0x00511a                  __printf_0
                  0x00510c                  __printf_cdnopsuxX
                  0x0050fe                  __printf_cdnopuxX
                  0x00511a                  __printf_s
                  0x00422c                  __psv_init
                  0x004200                  __resetPRI
                  0x00469e                  __sprintf_cdnopuxX
                  0x0046ca                  __sscanf_cdnopuxX
                  0x006ede                  __vfprintf_0
                  0x006818                  __vfprintf_cdnopsuxX
                  0x004a4a                  __vfprintf_cdnopuxX
                  0x006ede                  __vfprintf_s
                  0x00474a                  __vfscanf_cdnopuxX
                  0x005128                  _atoi
                  0x00c62c                  _btohexa_high
                  0x00c64a                  _btohexa_low
                  0x015268                  _configDescriptor1
                  0x00e14c                  _copyArray
                  0x015256                  _device_dsc
                  0x00f1e0                  _eTowerTCPPrint
                  0x00f174                  _eTowerTCPServer
                  0x00f16a                  _eTowerTCPServerInit
                  0x00f1f8                  _eTowerTxAvailable
                  0x00742e                  _fflush
                  0x006648                  _fgetc
                  0x00460a                  _fputs
                  0x0078a4                  _frexp
                  0x0078a4                  _frexpl
                  0x00ee28                  _heartBeat
                  0x00c5c4                  _hexatob
                  0x00e324                  _intIrTx
                  0x00d412                  _ir_echo_rawcode_init
                  0x00d442                  _ir_echo_rawcode_task
                  0x00f202                  _ir_print_raw_code
                  0x00d1a0                  _ir_sync_rx_tx
                  0x00cfa0                  _irrx_append_data_stack
                  0x00d122                  _irrx_append_data_text
                  0x00d1b4                  _irrx_decode
                  0x00d272                  _irrx_decode_space_encoded
                  0x00d2f6                  _irrx_echo
                  0x00d312                  _irrx_extract_raw_code
                  0x00d15a                  _irrx_flush_data_code
                  0x00d104                  _irrx_flush_data_text
                  0x00cfc6                  _irrx_get_duration
                  0x00d01e                  _irrx_get_time_elapsed
                  0x00d02a                  _irrx_get_time_elapsed_since
                  0x00d3f2                  _irrx_handle_raw_code
                  0x00cf0a                  _irrx_init
                  0x00cf80                  _irrx_int
                  0x00d07e                  _irrx_print_fifo
                  0x00d0ee                  _irrx_reset_data_text
                  0x00d184                  _irrx_set_echo
                  0x00d192                  _irrx_set_sync
                  0x00d176                  _irrx_set_verbose
                  0x00cf20                  _irrx_task
                  0x00e290                  _irtxInit
                  0x00e2b2                  _irtxSend
                  0x00e4bc                  _irtx_int_raw_code
                  0x00e340                  _irtx_int_space_code
                  0x00e2aa                  _irtx_off
                  0x00e2a0                  _irtx_on
                  0x00e2fc                  _irtx_send_raw_code
                  0x00e542                  _irtx_set_frequency_duty
                  0x0042d6                  _isalpha
                  0x0042ea                  _isspace
                  0x0042fa                  _isupper
                  0x00eda8                  _main
                  0x0045e0                  _memcpy
                  0x0045ee                  _memset
                  0x0045fc                  _printf
                  0x004626                  _puts
                  0x015288                  _sd000
                  0x01528c                  _sd001
                  0x0152aa                  _sd002
                  0x00e06c                  _stackUSBPacket
                  0x00463a                  _strcat
                  0x00464e                  _strchr
                  0x004662                  _strcmp
                  0x00c666                  _stricmppgm2ram
                  0x004670                  _strlen
                  0x00c876                  _strnchr
                  0x00467c                  _strncpy
                  0x00c8c2                  _strncpy_m
                  0x00c7f4                  _strupr
                  0x00c716                  _swapl
                  0x00c6fc                  _swaps
                  0x00d8c4                  _terminal_exec
                  0x00d922                  _terminal_extract_string
                  0x00d9b6                  _terminal_flush
                  0x00da86                  _terminal_level2_irrx
                  0x00db40                  _terminal_level2_irtx
                  0x00d9f0                  _terminal_level2_led
                  0x00db02                  _terminal_level3_irrx_set_sync
                  0x00dada                  _terminal_level3_irrx_verbose
                  0x00dbfc                  _terminal_level3_irtx_send_raw
                  0x00dba2                  _terminal_level3_irtx_set_frequency
                  0x00d9ca                  _terminal_reset_line
                  0x00d950                  _terminal_serialize
                  0x004306                  _tolower
                  0x00c542                  _uitoa
                  0x0067c8                  _ungetc
                  0x00e188                  _usbPrint
                  0x00df82                  _usbRx
                  0x00e0ca                  _usbTx
                  0x00ee5c                  _userHandlePacket
                  0x0052f6                  _vfprintf

Memory Configuration

Name             Origin             Length             Attributes
data             0x001000           0x001800           a !xr
reset            0x004000           0x000004  
ivt              0x004004           0x0000fc  
_reserved        0x004100           0x000004  
aivt             0x004104           0x0000fc  
program          0x004200           0x0111f8           xr
CONFIG4          0x0157f8           0x000002  
CONFIG3          0x0157fa           0x000002  
CONFIG2          0x0157fc           0x000002  
CONFIG1          0x0157fe           0x000002  
*default*        0x000000           0xffffffff  

Linker script and memory map

LOAD build/default/production/tcpip/src/arp.o
LOAD build/default/production/tcpip/src/common/delay.o
LOAD build/default/production/ENC28J60.o
LOAD build/default/production/tcpip/src/common/helpers.o
LOAD build/default/production/tcpip/src/icmp.o
LOAD build/default/production/tcpip/src/ip.o
LOAD build/default/production/tcpip/src/common/stack_task.o
LOAD build/default/production/tcpip/src/common/tick.o
LOAD build/default/production/tcpip/src/udp.o
LOAD build/default/production/tcpip/src/tcp.o
LOAD build/default/production/tcpip/src/dhcp_client.o
LOAD build/default/production/tcpip/src/telnet.o
LOAD build/default/production/usb_descriptors.o
LOAD build/default/production/usb/src/usb_device.o
LOAD build/default/production/usb/src/usb_device_generic.o
LOAD build/default/production/usb_fonctions.o
LOAD build/default/production/EthernetENCJ28J60.o
LOAD build/default/production/mcc_generated_files/pin_manager.o
LOAD build/default/production/tcpEtower.o
LOAD build/default/production/irtx.o
LOAD build/default/production/irrx.o
LOAD build/default/production/terminal.o
LOAD build/default/production/ir.o
                    0x0001                  __MPLAB_BUILD = 0x1
LOAD pPIC24Fxxx
LOAD /opt/microchip/xc16/v1.25/bin/bin/../../lib/libfx-elf.a
                    0x157f8                  __CONFIG4 = 0x157f8
                    0x157fa                  __CONFIG3 = 0x157fa
                    0x157fc                  __CONFIG2 = 0x157fc
                    0x157fe                  __CONFIG1 = 0x157fe
                    0x4200                  __CODE_BASE = 0x4200
                    0x111f8                  __CODE_LENGTH = 0x111f8
                    0x4004                  __IVT_BASE = 0x4004
                    0x4104                  __AIVT_BASE = 0x4104
                    0x1000                  __DATA_BASE = 0x1000
                    0x1800                  __DATA_LENGTH = 0x1800

.reset            0x004000          0x4
                  0x004000          0x2 SHORT 0x4200 ABSOLUTE (__reset)
                  0x004001          0x2 SHORT 0x4
                  0x004002          0x2 SHORT 0x0 ((ABSOLUTE (__reset) >> 0x10) & 0x7f)
                  0x004003          0x2 SHORT 0x0

.text             0x004200       0x3998
 *(.init)
 .init            0x004200         0x38 /opt/microchip/xc16/v1.25/bin/bin/../../lib/libpic30-elf.a(crt0_extended.o)
                  0x004200                  __reset
                  0x004200                  __resetPRI
                  0x00422c                  __psv_init
 .init            0x004238         0x9a /opt/microchip/xc16/v1.25/bin/bin/../../lib/libpic30-elf.a(data_init_extended.o)
                  0x004238                  __data_init_extended
                  0x004238                  __data_init
 *(.user_init)
 *(.handle)
 *(.isr*)
 .isr             0x0042d2          0x4 default_isr
                  0x0042d2                  __DefaultInterrupt
 *(.libc)
 .libc            0x0042d6         0x14 /opt/microchip/xc16/v1.25/bin/bin/../../lib/libc-elf.a(isalpha.eso)
                  0x0042d6                  _isalpha
 .libc            0x0042ea         0x10 /opt/microchip/xc16/v1.25/bin/bin/../../lib/libc-elf.a(isspace.eso)
                  0x0042ea                  _isspace
 .libc            0x0042fa          0xc /opt/microchip/xc16/v1.25/bin/bin/../../lib/libc-elf.a(isupper.eso)
                  0x0042fa                  _isupper
 .libc            0x004306          0xe /opt/microchip/xc16/v1.25/bin/bin/../../lib/libc-elf.a(tolower.eso)
                  0x004306                  _tolower
 .libc            0x004314         0x6c /opt/microchip/xc16/v1.25/bin/bin/../../lib/libpic30-elf.a(read.eo)
                  0x004314                  _read
 .libc            0x004380         0x5c /opt/microchip/xc16/v1.25/bin/bin/../../lib/libpic30-elf.a(write.eo)
                  0x004380                  _write
 *(.libm)
 *(.libdsp)
 *(.lib*)
 .libm.__PplusBdi
                  0x0043dc         0x26 /opt/microchip/xc16/v1.25/bin/bin/../../lib/libm-elf.a(divmoddi3.eo)
 .libm.__PminusBdi
                  0x004402         0x26 /opt/microchip/xc16/v1.25/bin/bin/../../lib/libm-elf.a(divmoddi3.eo)
 .libm.__udivmoddi3
                  0x004428         0xe6 /opt/microchip/xc16/v1.25/bin/bin/../../lib/libm-elf.a(divmoddi3.eo)
                  0x004428                  ___udivmoddi3
 .libm.__udivdi3
                  0x00450e          0xe /opt/microchip/xc16/v1.25/bin/bin/../../lib/libm-elf.a(divmoddi3.eo)
                  0x00450e                  ___udivdi3
 .libm.__umoddi3
                  0x00451c          0x8 /opt/microchip/xc16/v1.25/bin/bin/../../lib/libm-elf.a(divmoddi3.eo)
                  0x00451c                  ___umoddi3
 .libm.__divdi3
                  0x004524         0x60 /opt/microchip/xc16/v1.25/bin/bin/../../lib/libm-elf.a(divmoddi3.eo)
                  0x004524                  ___divdi3
 .libm.__moddi3
                  0x004584         0x5c /opt/microchip/xc16/v1.25/bin/bin/../../lib/libm-elf.a(divmoddi3.eo)
                  0x004584                  ___moddi3
 .libc.memcpy     0x0045e0          0xe /opt/microchip/xc16/v1.25/bin/bin/../../lib/libc-elf.a(memcpy.eo)
                  0x0045e0                  _memcpy
 .libc.memset     0x0045ee          0xe /opt/microchip/xc16/v1.25/bin/bin/../../lib/libc-elf.a(memset.eo)
                  0x0045ee                  _memset
 .libc.printf     0x0045fc          0xe /opt/microchip/xc16/v1.25/bin/bin/../../lib/libc-elf.a(printf.eo)
                  0x0045fc                  _printf
 .libc.fputs      0x00460a         0x1c /opt/microchip/xc16/v1.25/bin/bin/../../lib/libc-elf.a(puts.eo)
                  0x00460a                  _fputs
 .libc.puts       0x004626         0x14 /opt/microchip/xc16/v1.25/bin/bin/../../lib/libc-elf.a(puts.eo)
                  0x004626                  _puts
 .libc.strcat     0x00463a         0x14 /opt/microchip/xc16/v1.25/bin/bin/../../lib/libc-elf.a(strcat.eo)
                  0x00463a                  _strcat
 .libc.strchr     0x00464e         0x14 /opt/microchip/xc16/v1.25/bin/bin/../../lib/libc-elf.a(strchr.eo)
                  0x00464e                  _strchr
 .libc.strcmp     0x004662          0xe /opt/microchip/xc16/v1.25/bin/bin/../../lib/libc-elf.a(strcmp.eo)
                  0x004662                  _strcmp
 .libc.strlen     0x004670          0xc /opt/microchip/xc16/v1.25/bin/bin/../../lib/libc-elf.a(strlen.eo)
                  0x004670                  _strlen
 .libc.strncpy    0x00467c         0x22 /opt/microchip/xc16/v1.25/bin/bin/../../lib/libc-elf.a(strncpy.eo)
                  0x00467c                  _strncpy
 .libc._sprintf_cdnopuxX
                  0x00469e         0x2c /opt/microchip/xc16/v1.25/bin/bin/../../lib/libc-elf.a(sprintf_cdnopuxX.XXeo)
                  0x00469e                  __sprintf_cdnopuxX
 .libc._sscanf_cdnopuxX
                  0x0046ca         0x1c /opt/microchip/xc16/v1.25/bin/bin/../../lib/libc-elf.a(sscanf_cdnopuxX.XXeo)
                  0x0046ca                  __sscanf_cdnopuxX
 .libc.wspace     0x0046e6         0x1e /opt/microchip/xc16/v1.25/bin/bin/../../lib/libc-elf.a(doscan_cdnopuxX.XXeo)
 .libc.range      0x004704         0x46 /opt/microchip/xc16/v1.25/bin/bin/../../lib/libc-elf.a(doscan_cdnopuxX.XXeo)
 .libc._vfscanf_cdnopuxX
                  0x00474a        0x2ee /opt/microchip/xc16/v1.25/bin/bin/../../lib/libc-elf.a(doscan_cdnopuxX.XXeo)
                  0x00474a                  __vfscanf_cdnopuxX
 .libc.sputc      0x004a38         0x12 /opt/microchip/xc16/v1.25/bin/bin/../../lib/libc-elf.a(doprnt_cdnopuxX.XXeo)
 .libc._vfprintf_cdnopuxX
                  0x004a4a        0x6b4 /opt/microchip/xc16/v1.25/bin/bin/../../lib/libc-elf.a(doprnt_cdnopuxX.XXeo)
                  0x004a4a                  __vfprintf_cdnopuxX
 .libc._printf_cdnopuxX
                  0x0050fe          0xe /opt/microchip/xc16/v1.25/bin/bin/../../lib/libc-elf.a(printf_cdnopuxX.XXeo)
                  0x0050fe                  __printf_cdnopuxX
 .libc._printf_cdnopsuxX
                  0x00510c          0xe /opt/microchip/xc16/v1.25/bin/bin/../../lib/libc-elf.a(printf_cdnopsuxX.XXeo)
                  0x00510c                  __printf_cdnopsuxX
 .libc._printf_s
                  0x00511a          0xe /opt/microchip/xc16/v1.25/bin/bin/../../lib/libc-elf.a(printf_s.XXeo)
                  0x00511a                  __printf_0
                  0x00511a                  __printf_s
 .libc.atoi       0x005128         0x3e /opt/microchip/xc16/v1.25/bin/bin/../../lib/libc-elf.a(atoi.eo)
                  0x005128                  _atoi
 .libc.fround     0x005166         0xba /opt/microchip/xc16/v1.25/bin/bin/../../lib/libc-elf.a(doprnt.eo)
 .libc.scale      0x005220         0xc4 /opt/microchip/xc16/v1.25/bin/bin/../../lib/libc-elf.a(doprnt.eo)
 .libc.sputc      0x0052e4         0x12 /opt/microchip/xc16/v1.25/bin/bin/../../lib/libc-elf.a(doprnt.eo)
 .libc.vfprintf
                  0x0052f6       0x1352 /opt/microchip/xc16/v1.25/bin/bin/../../lib/libc-elf.a(doprnt.eo)
                  0x0052f6                  _vfprintf
 .libc.fgetc      0x006648         0x62 /opt/microchip/xc16/v1.25/bin/bin/../../lib/libc-elf.a(fgetc.eo)
                  0x006648                  _fgetc
 .libc._filbuf    0x0066aa         0x98 /opt/microchip/xc16/v1.25/bin/bin/../../lib/libc-elf.a(filbuf.eo)
                  0x0066aa                  __filbuf
 .libc.fputc      0x006742         0x86 /opt/microchip/xc16/v1.25/bin/bin/../../lib/libc-elf.a(fputc.eo)
                  0x006742                  _fputc
 .libc.ungetc     0x0067c8         0x3e /opt/microchip/xc16/v1.25/bin/bin/../../lib/libc-elf.a(ungetc.eo)
                  0x0067c8                  _ungetc
 .libc.sputc      0x006806         0x12 /opt/microchip/xc16/v1.25/bin/bin/../../lib/libc-elf.a(doprnt_cdnopsuxX.XXeo)
 .libc._vfprintf_cdnopsuxX
                  0x006818        0x6b4 /opt/microchip/xc16/v1.25/bin/bin/../../lib/libc-elf.a(doprnt_cdnopsuxX.XXeo)
                  0x006818                  __vfprintf_cdnopsuxX
 .libc.sputc      0x006ecc         0x12 /opt/microchip/xc16/v1.25/bin/bin/../../lib/libc-elf.a(doprnt_s.XXeo)
 .libc._vfprintf_s
                  0x006ede        0x550 /opt/microchip/xc16/v1.25/bin/bin/../../lib/libc-elf.a(doprnt_s.XXeo)
                  0x006ede                  __vfprintf_s
                  0x006ede                  __vfprintf_0
 .libc.fflush     0x00742e         0x54 /opt/microchip/xc16/v1.25/bin/bin/../../lib/libc-elf.a(fflush.eo)
                  0x00742e                  _fflush
 .libc._flsbuf    0x007482         0x7e /opt/microchip/xc16/v1.25/bin/bin/../../lib/libc-elf.a(flsbuf.eo)
                  0x007482                  __flsbuf
 .libc.doread     0x007500          0x4 /opt/microchip/xc16/v1.25/bin/bin/../../lib/libpic30-elf.a(read.eo)
 .libc.dowrite    0x007504          0x4 /opt/microchip/xc16/v1.25/bin/bin/../../lib/libpic30-elf.a(write.eo)
 .libm.adddf3     0x007508         0xfa /opt/microchip/xc16/v1.25/bin/bin/../../lib/libm-elf.a(adddf3.eo)
                  0x007508                  ___adddf3
 .libm.eqdf2      0x007602          0xa /opt/microchip/xc16/v1.25/bin/bin/../../lib/libm-elf.a(deqltle.eo)
                  0x007602                  ___ledf2
                  0x007602                  ___eqdf2
                  0x007602                  ___ltdf2
 .libm.gtdf2      0x00760c          0xa /opt/microchip/xc16/v1.25/bin/bin/../../lib/libm-elf.a(dgtge.eo)
                  0x00760c                  ___gedf2
                  0x00760c                  ___gtdf2
 .libm.divdf3     0x007616         0xb4 /opt/microchip/xc16/v1.25/bin/bin/../../lib/libm-elf.a(divdf3.eo)
                  0x007616                  ___divdf3
 .libm.nedf2      0x0076ca          0xa /opt/microchip/xc16/v1.25/bin/bin/../../lib/libm-elf.a(dne.eo)
                  0x0076ca                  ___nedf2
 .libm.dpack      0x0076d4         0x58 /opt/microchip/xc16/v1.25/bin/bin/../../lib/libm-elf.a(dpack.eo)
                  0x0076d4                  __dpack
 .libm.dunpack2
                  0x00772c         0x32 /opt/microchip/xc16/v1.25/bin/bin/../../lib/libm-elf.a(dunpack2.eo)
                  0x00772c                  __dunpack2
                  0x00774e                  __dreturnNaN
                  0x007754                  __dunpack2exit
 .libm.extendsfdf2
                  0x00775e         0x3e /opt/microchip/xc16/v1.25/bin/bin/../../lib/libm-elf.a(extendsfdf.eo)
                  0x00775e                  ___extendsfdf2
 .libm.fixunsdfdi
                  0x00779c         0x62 /opt/microchip/xc16/v1.25/bin/bin/../../lib/libm-elf.a(fixunsdfdi.eo)
                  0x00779c                  ___fixunsdfdi
 .libm.fixunsdfsi
                  0x0077fe         0x4c /opt/microchip/xc16/v1.25/bin/bin/../../lib/libm-elf.a(fixunsdfsi.eo)
                  0x0077fe                  ___fixunsdfsi
 .libm.floatundidf
                  0x00784a         0x56 /opt/microchip/xc16/v1.25/bin/bin/../../lib/libm-elf.a(floatundidf.eo)
                  0x00784a                  ___floatundidf
 .libm.floatunsidf
                  0x0078a0          0x4 /opt/microchip/xc16/v1.25/bin/bin/../../lib/libm-elf.a(floatunsidf.eo)
                  0x0078a0                  ___floatunsidf
 .libm.frexp      0x0078a4         0x3a /opt/microchip/xc16/v1.25/bin/bin/../../lib/libm-elf.a(frexp.eo)
                  0x0078a4                  _frexpl
                  0x0078a4                  _frexp
 .libm.funpack    0x0078de         0x2a /opt/microchip/xc16/v1.25/bin/bin/../../lib/libm-elf.a(funpack.eo)
                  0x0078de                  __funpack
 .libm.muldf3     0x007908         0xea /opt/microchip/xc16/v1.25/bin/bin/../../lib/libm-elf.a(muldf3.eo)
                  0x007908                  ___muldf3
 .libm.subdf3     0x0079f2          0x4 /opt/microchip/xc16/v1.25/bin/bin/../../lib/libm-elf.a(subdf3.eo)
                  0x0079f2                  ___subdf3
 .libm.udivsi3    0x0079f6         0x20 /opt/microchip/xc16/v1.25/bin/bin/../../lib/libm-elf.a(udivsi3.eo)
                  0x0079f6                  ___udivsi3
 .libm.mulsi3     0x007a16          0xc /opt/microchip/xc16/v1.25/bin/bin/../../lib/libm-elf.a(mulsi3.eo)
                  0x007a16                  ___mulp32eds3
                  0x007a16                  ___mulp32peds3
                  0x007a16                  ___mulsi3
 .libm.__muldi3
                  0x007a22         0x52 /opt/microchip/xc16/v1.25/bin/bin/../../lib/libm-elf.a(muldi3.eo)
                  0x007a22                  ___muldi3
 .libm.dcompare
                  0x007a74         0x52 /opt/microchip/xc16/v1.25/bin/bin/../../lib/libm-elf.a(dcompare.eo)
                  0x007a74                  __dcompare
 .libm.dPropagateNaN
                  0x007ac6         0x1c /opt/microchip/xc16/v1.25/bin/bin/../../lib/libm-elf.a(dpropagateNaN.eo)
                  0x007ac6                  __dPropagateNaN
 .libm.dtype      0x007ae2         0x24 /opt/microchip/xc16/v1.25/bin/bin/../../lib/libm-elf.a(dtype.eo)
                  0x007ae2                  __dtype
 .libm.dunpack    0x007b06         0x4e /opt/microchip/xc16/v1.25/bin/bin/../../lib/libm-elf.a(dunpack.eo)
                  0x007b06                  __dunpack
 .libm.umuldi3    0x007b54         0x44 /opt/microchip/xc16/v1.25/bin/bin/../../lib/libm-elf.a(umuldi3.eo)
                  0x007b54                  ___umuldi3

usercode
 *(usercode)

__CONFIG4
 *(__CONFIG4.sec*)

__CONFIG3
 *(__CONFIG3.sec*)

__CONFIG2
 *(__CONFIG2.sec*)

__CONFIG1
 *(__CONFIG1.sec*)

.comment
 *(.comment)

.debug_info       0x000000      0x18617
 *(.debug_info)
 .debug_info      0x000000        0xe0b build/default/production/tcpip/src/arp.o
 .debug_info      0x000e0b        0x1f5 build/default/production/tcpip/src/common/delay.o
 .debug_info      0x001000       0x35ba build/default/production/ENC28J60.o
 .debug_info      0x0045ba       0x1250 build/default/production/tcpip/src/common/helpers.o
 .debug_info      0x00580a        0xd3b build/default/production/tcpip/src/icmp.o
 .debug_info      0x006545        0xdc1 build/default/production/tcpip/src/ip.o
 .debug_info      0x007306        0xcda build/default/production/tcpip/src/common/stack_task.o
 .debug_info      0x007fe0        0xec4 build/default/production/tcpip/src/common/tick.o
 .debug_info      0x008ea4       0x142f build/default/production/tcpip/src/udp.o
 .debug_info      0x00a2d3       0x245d build/default/production/tcpip/src/tcp.o
 .debug_info      0x00c730       0x13b0 build/default/production/tcpip/src/dhcp_client.o
 .debug_info      0x00dae0        0x7d5 build/default/production/tcpip/src/telnet.o
 .debug_info      0x00e2b5        0x7dc build/default/production/usb_descriptors.o
 .debug_info      0x00ea91       0x280e build/default/production/usb/src/usb_device.o
 .debug_info      0x01129f        0x15f build/default/production/usb/src/usb_device_generic.o
 .debug_info      0x0113fe       0x110e build/default/production/usb_fonctions.o
 .debug_info      0x01250c       0x1284 build/default/production/EthernetENCJ28J60.o
 .debug_info      0x013790       0x1dd7 build/default/production/mcc_generated_files/pin_manager.o
 .debug_info      0x015567        0x820 build/default/production/tcpEtower.o
 .debug_info      0x015d87        0xc7c build/default/production/irtx.o
 .debug_info      0x016a03       0x1196 build/default/production/irrx.o
 .debug_info      0x017b99        0x866 build/default/production/terminal.o
 .debug_info      0x0183ff        0x218 build/default/production/ir.o
 *(.gnu.linkonce.wi.*)

.debug_abbrev     0x000000       0x2278
 *(.debug_abbrev)
 .debug_abbrev    0x000000        0x1b3 build/default/production/tcpip/src/arp.o
 .debug_abbrev    0x0001b3         0x68 build/default/production/tcpip/src/common/delay.o
 .debug_abbrev    0x00021b        0x2cb build/default/production/ENC28J60.o
 .debug_abbrev    0x0004e6        0x1bd build/default/production/tcpip/src/common/helpers.o
 .debug_abbrev    0x0006a3        0x138 build/default/production/tcpip/src/icmp.o
 .debug_abbrev    0x0007db        0x149 build/default/production/tcpip/src/ip.o
 .debug_abbrev    0x000924        0x123 build/default/production/tcpip/src/common/stack_task.o
 .debug_abbrev    0x000a47        0x1ca build/default/production/tcpip/src/common/tick.o
 .debug_abbrev    0x000c11        0x1e8 build/default/production/tcpip/src/udp.o
 .debug_abbrev    0x000df9        0x1f0 build/default/production/tcpip/src/tcp.o
 .debug_abbrev    0x000fe9        0x1b0 build/default/production/tcpip/src/dhcp_client.o
 .debug_abbrev    0x001199         0xca build/default/production/tcpip/src/telnet.o
 .debug_abbrev    0x001263         0xe2 build/default/production/usb_descriptors.o
 .debug_abbrev    0x001345        0x2bc build/default/production/usb/src/usb_device.o
 .debug_abbrev    0x001601         0x1f build/default/production/usb/src/usb_device_generic.o
 .debug_abbrev    0x001620        0x25f build/default/production/usb_fonctions.o
 .debug_abbrev    0x00187f        0x22b build/default/production/EthernetENCJ28J60.o
 .debug_abbrev    0x001aaa         0xcd build/default/production/mcc_generated_files/pin_manager.o
 .debug_abbrev    0x001b77        0x140 build/default/production/tcpEtower.o
 .debug_abbrev    0x001cb7        0x181 build/default/production/irtx.o
 .debug_abbrev    0x001e38        0x254 build/default/production/irrx.o
 .debug_abbrev    0x00208c        0x156 build/default/production/terminal.o
 .debug_abbrev    0x0021e2         0x96 build/default/production/ir.o

.debug_line       0x000000       0x9a5f
 *(.debug_line)
 .debug_line      0x000000        0x402 build/default/production/tcpip/src/arp.o
 .debug_line      0x000402         0xf0 build/default/production/tcpip/src/common/delay.o
 .debug_line      0x0004f2       0x1299 build/default/production/ENC28J60.o
 .debug_line      0x00178b        0x947 build/default/production/tcpip/src/common/helpers.o
 .debug_line      0x0020d2        0x378 build/default/production/tcpip/src/icmp.o
 .debug_line      0x00244a        0x263 build/default/production/tcpip/src/ip.o
 .debug_line      0x0026ad        0x2c5 build/default/production/tcpip/src/common/stack_task.o
 .debug_line      0x002972        0x31a build/default/production/tcpip/src/common/tick.o
 .debug_line      0x002c8c        0x846 build/default/production/tcpip/src/udp.o
 .debug_line      0x0034d2       0x2671 build/default/production/tcpip/src/tcp.o
 .debug_line      0x005b43        0xadf build/default/production/tcpip/src/dhcp_client.o
 .debug_line      0x006622        0x3a9 build/default/production/tcpip/src/telnet.o
 .debug_line      0x0069cb         0x96 build/default/production/usb_descriptors.o
 .debug_line      0x006a61       0x11f2 build/default/production/usb/src/usb_device.o
 .debug_line      0x007c53         0x24 build/default/production/usb/src/usb_device_generic.o
 .debug_line      0x007c77        0x50c build/default/production/usb_fonctions.o
 .debug_line      0x008183        0x313 build/default/production/EthernetENCJ28J60.o
 .debug_line      0x008496        0x1d7 build/default/production/mcc_generated_files/pin_manager.o
 .debug_line      0x00866d        0x1d1 build/default/production/tcpEtower.o
 .debug_line      0x00883e        0x454 build/default/production/irtx.o
 .debug_line      0x008c92        0x769 build/default/production/irrx.o
 .debug_line      0x0093fb        0x582 build/default/production/terminal.o
 .debug_line      0x00997d         0xe2 build/default/production/ir.o

.debug_frame      0x000000       0x13e8
 *(.debug_frame)
 .debug_frame     0x000000         0x84 build/default/production/tcpip/src/arp.o
 .debug_frame     0x000084         0x34 build/default/production/tcpip/src/common/delay.o
 .debug_frame     0x0000b8        0x214 build/default/production/ENC28J60.o
 .debug_frame     0x0002cc        0x114 build/default/production/tcpip/src/common/helpers.o
 .debug_frame     0x0003e0         0x64 build/default/production/tcpip/src/icmp.o
 .debug_frame     0x000444         0x54 build/default/production/tcpip/src/ip.o
 .debug_frame     0x000498         0x44 build/default/production/tcpip/src/common/stack_task.o
 .debug_frame     0x0004dc         0x84 build/default/production/tcpip/src/common/tick.o
 .debug_frame     0x000560        0x134 build/default/production/tcpip/src/udp.o
 .debug_frame     0x000694        0x234 build/default/production/tcpip/src/tcp.o
 .debug_frame     0x0008c8         0xc4 build/default/production/tcpip/src/dhcp_client.o
 .debug_frame     0x00098c         0x24 build/default/production/tcpip/src/telnet.o
 .debug_frame     0x0009b0        0x194 build/default/production/usb/src/usb_device.o
 .debug_frame     0x000b44        0x10c build/default/production/usb_fonctions.o
 .debug_frame     0x000c50         0x88 build/default/production/EthernetENCJ28J60.o
 .debug_frame     0x000cd8         0x24 build/default/production/mcc_generated_files/pin_manager.o
 .debug_frame     0x000cfc         0x54 build/default/production/tcpEtower.o
 .debug_frame     0x000d50         0xc0 build/default/production/irtx.o
 .debug_frame     0x000e10        0x2dc build/default/production/irrx.o
 .debug_frame     0x0010ec        0x26c build/default/production/terminal.o
 .debug_frame     0x001358         0x90 build/default/production/ir.o

.debug_str        0x000000        0xa29
 *(.debug_str)
 .debug_str       0x000000         0x18 build/default/production/tcpip/src/arp.o
 .debug_str       0x000018         0xfb build/default/production/ENC28J60.o
 .debug_str       0x000113          0x9 build/default/production/tcpip/src/common/helpers.o
 .debug_str       0x00011c         0x13 build/default/production/tcpip/src/ip.o
 .debug_str       0x00012f         0x15 build/default/production/tcpip/src/common/stack_task.o
 .debug_str       0x000144         0x25 build/default/production/tcpip/src/common/tick.o
 .debug_str       0x000169         0x72 build/default/production/tcpip/src/udp.o
 .debug_str       0x0001db         0xcb build/default/production/tcpip/src/tcp.o
 .debug_str       0x0002a6         0x48 build/default/production/tcpip/src/dhcp_client.o
 .debug_str       0x0002ee          0x9 build/default/production/tcpip/src/telnet.o
 .debug_str       0x0002f7         0x2a build/default/production/usb_descriptors.o
 .debug_str       0x000321        0x286 build/default/production/usb/src/usb_device.o
 .debug_str       0x0005a7         0xc0 build/default/production/usb_fonctions.o
 .debug_str       0x000667         0x57 build/default/production/EthernetENCJ28J60.o
 .debug_str       0x0006be         0xf9 build/default/production/mcc_generated_files/pin_manager.o
 .debug_str       0x0007b7         0x21 build/default/production/tcpEtower.o
 .debug_str       0x0007d8         0x9b build/default/production/irtx.o
 .debug_str       0x000873        0x143 build/default/production/irrx.o
 .debug_str       0x0009b6         0x73 build/default/production/terminal.o

.debug_loc
 *(.debug_loc)

.debug_macinfo
 *(.debug_macinfo)

.debug_pubnames
                  0x000000       0x15ad
 *(.debug_pubnames)
 .debug_pubnames
                  0x000000         0x6f build/default/production/tcpip/src/arp.o
 .debug_pubnames
                  0x00006f         0x2c build/default/production/tcpip/src/common/delay.o
 .debug_pubnames
                  0x00009b        0x1b8 build/default/production/ENC28J60.o
 .debug_pubnames
                  0x000253        0x10a build/default/production/tcpip/src/common/helpers.o
 .debug_pubnames
                  0x00035d         0x68 build/default/production/tcpip/src/icmp.o
 .debug_pubnames
                  0x0003c5         0x44 build/default/production/tcpip/src/ip.o
 .debug_pubnames
                  0x000409         0x53 build/default/production/tcpip/src/common/stack_task.o
 .debug_pubnames
                  0x00045c         0x7e build/default/production/tcpip/src/common/tick.o
 .debug_pubnames
                  0x0004da        0x155 build/default/production/tcpip/src/udp.o
 .debug_pubnames
                  0x00062f        0x1ba build/default/production/tcpip/src/tcp.o
 .debug_pubnames
                  0x0007e9         0xcc build/default/production/tcpip/src/dhcp_client.o
 .debug_pubnames
                  0x0008b5         0x21 build/default/production/tcpip/src/telnet.o
 .debug_pubnames
                  0x0008d6         0x73 build/default/production/usb_descriptors.o
 .debug_pubnames
                  0x000949        0x312 build/default/production/usb/src/usb_device.o
 .debug_pubnames
                  0x000c5b        0x17a build/default/production/usb_fonctions.o
 .debug_pubnames
                  0x000dd5         0x88 build/default/production/EthernetENCJ28J60.o
 .debug_pubnames
                  0x000e5d         0x2d build/default/production/mcc_generated_files/pin_manager.o
 .debug_pubnames
                  0x000e8a         0x74 build/default/production/tcpEtower.o
 .debug_pubnames
                  0x000efe        0x16a build/default/production/irtx.o
 .debug_pubnames
                  0x001068        0x355 build/default/production/irrx.o
 .debug_pubnames
                  0x0013bd        0x1c8 build/default/production/terminal.o
 .debug_pubnames
                  0x001585         0x28 build/default/production/ir.o

.debug_ranges
 *(.debug_ranges)

.debug_aranges    0x000000        0x1f8
 *(.debug_aranges)
 .debug_aranges
                  0x000000         0x18 build/default/production/tcpip/src/arp.o
 .debug_aranges
                  0x000018         0x18 build/default/production/tcpip/src/common/delay.o
 .debug_aranges
                  0x000030         0x18 build/default/production/ENC28J60.o
 .debug_aranges
                  0x000048         0x18 build/default/production/tcpip/src/common/helpers.o
 .debug_aranges
                  0x000060         0x18 build/default/production/tcpip/src/icmp.o
 .debug_aranges
                  0x000078         0x18 build/default/production/tcpip/src/ip.o
 .debug_aranges
                  0x000090         0x18 build/default/production/tcpip/src/common/stack_task.o
 .debug_aranges
                  0x0000a8         0x18 build/default/production/tcpip/src/common/tick.o
 .debug_aranges
                  0x0000c0         0x18 build/default/production/tcpip/src/udp.o
 .debug_aranges
                  0x0000d8         0x18 build/default/production/tcpip/src/tcp.o
 .debug_aranges
                  0x0000f0         0x18 build/default/production/tcpip/src/dhcp_client.o
 .debug_aranges
                  0x000108         0x18 build/default/production/tcpip/src/telnet.o
 .debug_aranges
                  0x000120         0x18 build/default/production/usb/src/usb_device.o
 .debug_aranges
                  0x000138         0x18 build/default/production/usb_fonctions.o
 .debug_aranges
                  0x000150         0x18 build/default/production/EthernetENCJ28J60.o
 .debug_aranges
                  0x000168         0x18 build/default/production/mcc_generated_files/pin_manager.o
 .debug_aranges
                  0x000180         0x18 build/default/production/tcpEtower.o
 .debug_aranges
                  0x000198         0x18 build/default/production/irtx.o
 .debug_aranges
                  0x0001b0         0x18 build/default/production/irrx.o
 .debug_aranges
                  0x0001c8         0x18 build/default/production/terminal.o
 .debug_aranges
                  0x0001e0         0x18 build/default/production/ir.o

.ivt              0x004004         0xfc
                  0x004004          0x4 LONG 0x42d2 DEFINED (__ReservedTrap0)?ABSOLUTE (__ReservedTrap0):ABSOLUTE (__DefaultInterrupt)
                  0x004006          0x4 LONG 0x42d2 DEFINED (__OscillatorFail)?ABSOLUTE (__OscillatorFail):ABSOLUTE (__DefaultInterrupt)
                  0x004008          0x4 LONG 0x42d2 DEFINED (__AddressError)?ABSOLUTE (__AddressError):ABSOLUTE (__DefaultInterrupt)
                  0x00400a          0x4 LONG 0x42d2 DEFINED (__StackError)?ABSOLUTE (__StackError):ABSOLUTE (__DefaultInterrupt)
                  0x00400c          0x4 LONG 0x42d2 DEFINED (__MathError)?ABSOLUTE (__MathError):ABSOLUTE (__DefaultInterrupt)
                  0x00400e          0x4 LONG 0x42d2 DEFINED (__ReservedTrap5)?ABSOLUTE (__ReservedTrap5):ABSOLUTE (__DefaultInterrupt)
                  0x004010          0x4 LONG 0x42d2 DEFINED (__ReservedTrap6)?ABSOLUTE (__ReservedTrap6):ABSOLUTE (__DefaultInterrupt)
                  0x004012          0x4 LONG 0x42d2 DEFINED (__ReservedTrap7)?ABSOLUTE (__ReservedTrap7):ABSOLUTE (__DefaultInterrupt)
                  0x004014          0x4 LONG 0x42d2 DEFINED (__INT0Interrupt)?ABSOLUTE (__INT0Interrupt):ABSOLUTE (__DefaultInterrupt)
                  0x004016          0x4 LONG 0xeef4 DEFINED (__IC1Interrupt)?ABSOLUTE (__IC1Interrupt):ABSOLUTE (__DefaultInterrupt)
                  0x004018          0x4 LONG 0x42d2 DEFINED (__OC1Interrupt)?ABSOLUTE (__OC1Interrupt):ABSOLUTE (__DefaultInterrupt)
                  0x00401a          0x4 LONG 0xf05a DEFINED (__T1Interrupt)?ABSOLUTE (__T1Interrupt):ABSOLUTE (__DefaultInterrupt)
                  0x00401c          0x4 LONG 0x42d2 DEFINED (__DMA0Interrupt)?ABSOLUTE (__DMA0Interrupt):ABSOLUTE (__DefaultInterrupt)
                  0x00401e          0x4 LONG 0x42d2 DEFINED (__IC2Interrupt)?ABSOLUTE (__IC2Interrupt):ABSOLUTE (__DefaultInterrupt)
                  0x004020          0x4 LONG 0x42d2 DEFINED (__OC2Interrupt)?ABSOLUTE (__OC2Interrupt):ABSOLUTE (__DefaultInterrupt)
                  0x004022          0x4 LONG 0x42d2 DEFINED (__T2Interrupt)?ABSOLUTE (__T2Interrupt):ABSOLUTE (__DefaultInterrupt)
                  0x004024          0x4 LONG 0xeec6 DEFINED (__T3Interrupt)?ABSOLUTE (__T3Interrupt):ABSOLUTE (__DefaultInterrupt)
                  0x004026          0x4 LONG 0x42d2 DEFINED (__SPI1Interrupt)?ABSOLUTE (__SPI1Interrupt):ABSOLUTE (__DefaultInterrupt)
                  0x004028          0x4 LONG 0x42d2 DEFINED (__SPI1TXInterrupt)?ABSOLUTE (__SPI1TXInterrupt):ABSOLUTE (__DefaultInterrupt)
                  0x00402a          0x4 LONG 0x42d2 DEFINED (__U1RXInterrupt)?ABSOLUTE (__U1RXInterrupt):ABSOLUTE (__DefaultInterrupt)
                  0x00402c          0x4 LONG 0x42d2 DEFINED (__U1TXInterrupt)?ABSOLUTE (__U1TXInterrupt):ABSOLUTE (__DefaultInterrupt)
                  0x00402e          0x4 LONG 0x42d2 DEFINED (__ADC1Interrupt)?ABSOLUTE (__ADC1Interrupt):ABSOLUTE (__DefaultInterrupt)
                  0x004030          0x4 LONG 0x42d2 DEFINED (__DMA1Interrupt)?ABSOLUTE (__DMA1Interrupt):ABSOLUTE (__DefaultInterrupt)
                  0x004032          0x4 LONG 0x42d2 DEFINED (__Interrupt15)?ABSOLUTE (__Interrupt15):ABSOLUTE (__DefaultInterrupt)
                  0x004034          0x4 LONG 0x42d2 DEFINED (__SI2C1Interrupt)?ABSOLUTE (__SI2C1Interrupt):ABSOLUTE (__DefaultInterrupt)
                  0x004036          0x4 LONG 0x42d2 DEFINED (__MI2C1Interrupt)?ABSOLUTE (__MI2C1Interrupt):ABSOLUTE (__DefaultInterrupt)
                  0x004038          0x4 LONG 0x42d2 DEFINED (__CompInterrupt)?ABSOLUTE (__CompInterrupt):ABSOLUTE (__DefaultInterrupt)
                  0x00403a          0x4 LONG 0x42d2 DEFINED (__CNInterrupt)?ABSOLUTE (__CNInterrupt):ABSOLUTE (__DefaultInterrupt)
                  0x00403c          0x4 LONG 0x42d2 DEFINED (__INT1Interrupt)?ABSOLUTE (__INT1Interrupt):ABSOLUTE (__DefaultInterrupt)
                  0x00403e          0x4 LONG 0x42d2 DEFINED (__Interrupt21)?ABSOLUTE (__Interrupt21):ABSOLUTE (__DefaultInterrupt)
                  0x004040          0x4 LONG 0x42d2 DEFINED (__Interrupt22)?ABSOLUTE (__Interrupt22):ABSOLUTE (__DefaultInterrupt)
                  0x004042          0x4 LONG 0x42d2 DEFINED (__Interrupt23)?ABSOLUTE (__Interrupt23):ABSOLUTE (__DefaultInterrupt)
                  0x004044          0x4 LONG 0x42d2 DEFINED (__DMA2Interrupt)?ABSOLUTE (__DMA2Interrupt):ABSOLUTE (__DefaultInterrupt)
                  0x004046          0x4 LONG 0x42d2 DEFINED (__OC3Interrupt)?ABSOLUTE (__OC3Interrupt):ABSOLUTE (__DefaultInterrupt)
                  0x004048          0x4 LONG 0x42d2 DEFINED (__OC4Interrupt)?ABSOLUTE (__OC4Interrupt):ABSOLUTE (__DefaultInterrupt)
                  0x00404a          0x4 LONG 0x42d2 DEFINED (__T4Interrupt)?ABSOLUTE (__T4Interrupt):ABSOLUTE (__DefaultInterrupt)
                  0x00404c          0x4 LONG 0x42d2 DEFINED (__T5Interrupt)?ABSOLUTE (__T5Interrupt):ABSOLUTE (__DefaultInterrupt)
                  0x00404e          0x4 LONG 0x42d2 DEFINED (__INT2Interrupt)?ABSOLUTE (__INT2Interrupt):ABSOLUTE (__DefaultInterrupt)
                  0x004050          0x4 LONG 0x42d2 DEFINED (__U2RXInterrupt)?ABSOLUTE (__U2RXInterrupt):ABSOLUTE (__DefaultInterrupt)
                  0x004052          0x4 LONG 0x42d2 DEFINED (__U2TXInterrupt)?ABSOLUTE (__U2TXInterrupt):ABSOLUTE (__DefaultInterrupt)
                  0x004054          0x4 LONG 0x42d2 DEFINED (__SPI2Interrupt)?ABSOLUTE (__SPI2Interrupt):ABSOLUTE (__DefaultInterrupt)
                  0x004056          0x4 LONG 0x42d2 DEFINED (__SPI2TXInterrupt)?ABSOLUTE (__SPI2TXInterrupt):ABSOLUTE (__DefaultInterrupt)
                  0x004058          0x4 LONG 0x42d2 DEFINED (__Interrupt34)?ABSOLUTE (__Interrupt34):ABSOLUTE (__DefaultInterrupt)
                  0x00405a          0x4 LONG 0x42d2 DEFINED (__Interrupt35)?ABSOLUTE (__Interrupt35):ABSOLUTE (__DefaultInterrupt)
                  0x00405c          0x4 LONG 0x42d2 DEFINED (__DMA3Interrupt)?ABSOLUTE (__DMA3Interrupt):ABSOLUTE (__DefaultInterrupt)
                  0x00405e          0x4 LONG 0x42d2 DEFINED (__IC3Interrupt)?ABSOLUTE (__IC3Interrupt):ABSOLUTE (__DefaultInterrupt)
                  0x004060          0x4 LONG 0x42d2 DEFINED (__IC4Interrupt)?ABSOLUTE (__IC4Interrupt):ABSOLUTE (__DefaultInterrupt)
                  0x004062          0x4 LONG 0x42d2 DEFINED (__IC5Interrupt)?ABSOLUTE (__IC5Interrupt):ABSOLUTE (__DefaultInterrupt)
                  0x004064          0x4 LONG 0x42d2 DEFINED (__IC6Interrupt)?ABSOLUTE (__IC6Interrupt):ABSOLUTE (__DefaultInterrupt)
                  0x004066          0x4 LONG 0x42d2 DEFINED (__OC5Interrupt)?ABSOLUTE (__OC5Interrupt):ABSOLUTE (__DefaultInterrupt)
                  0x004068          0x4 LONG 0x42d2 DEFINED (__OC6Interrupt)?ABSOLUTE (__OC6Interrupt):ABSOLUTE (__DefaultInterrupt)
                  0x00406a          0x4 LONG 0x42d2 DEFINED (__Interrupt43)?ABSOLUTE (__Interrupt43):ABSOLUTE (__DefaultInterrupt)
                  0x00406c          0x4 LONG 0x42d2 DEFINED (__Interrupt44)?ABSOLUTE (__Interrupt44):ABSOLUTE (__DefaultInterrupt)
                  0x00406e          0x4 LONG 0x42d2 DEFINED (__PMPInterrupt)?ABSOLUTE (__PMPInterrupt):ABSOLUTE (__DefaultInterrupt)
                  0x004070          0x4 LONG 0x42d2 DEFINED (__DMA4Interrupt)?ABSOLUTE (__DMA4Interrupt):ABSOLUTE (__DefaultInterrupt)
                  0x004072          0x4 LONG 0x42d2 DEFINED (__Interrupt47)?ABSOLUTE (__Interrupt47):ABSOLUTE (__DefaultInterrupt)
                  0x004074          0x4 LONG 0x42d2 DEFINED (__Interrupt48)?ABSOLUTE (__Interrupt48):ABSOLUTE (__DefaultInterrupt)
                  0x004076          0x4 LONG 0x42d2 DEFINED (__SI2C2Interrupt)?ABSOLUTE (__SI2C2Interrupt):ABSOLUTE (__DefaultInterrupt)
                  0x004078          0x4 LONG 0x42d2 DEFINED (__MI2C2Interrupt)?ABSOLUTE (__MI2C2Interrupt):ABSOLUTE (__DefaultInterrupt)
                  0x00407a          0x4 LONG 0x42d2 DEFINED (__Interrupt51)?ABSOLUTE (__Interrupt51):ABSOLUTE (__DefaultInterrupt)
                  0x00407c          0x4 LONG 0x42d2 DEFINED (__Interrupt52)?ABSOLUTE (__Interrupt52):ABSOLUTE (__DefaultInterrupt)
                  0x00407e          0x4 LONG 0x42d2 DEFINED (__INT3Interrupt)?ABSOLUTE (__INT3Interrupt):ABSOLUTE (__DefaultInterrupt)
                  0x004080          0x4 LONG 0x42d2 DEFINED (__INT4Interrupt)?ABSOLUTE (__INT4Interrupt):ABSOLUTE (__DefaultInterrupt)
                  0x004082          0x4 LONG 0x42d2 DEFINED (__CRYPTOInterrupt)?ABSOLUTE (__CRYPTOInterrupt):ABSOLUTE (__DefaultInterrupt)
                  0x004084          0x4 LONG 0x42d2 DEFINED (__CRYPTOKeyInterrupt)?ABSOLUTE (__CRYPTOKeyInterrupt):ABSOLUTE (__DefaultInterrupt)
                  0x004086          0x4 LONG 0x42d2 DEFINED (__Interrupt57)?ABSOLUTE (__Interrupt57):ABSOLUTE (__DefaultInterrupt)
                  0x004088          0x4 LONG 0x42d2 DEFINED (__SPI1RXInterrupt)?ABSOLUTE (__SPI1RXInterrupt):ABSOLUTE (__DefaultInterrupt)
                  0x00408a          0x4 LONG 0x42d2 DEFINED (__SPI2RXInterrupt)?ABSOLUTE (__SPI2RXInterrupt):ABSOLUTE (__DefaultInterrupt)
                  0x00408c          0x4 LONG 0x42d2 DEFINED (__SPI3RXInterrupt)?ABSOLUTE (__SPI3RXInterrupt):ABSOLUTE (__DefaultInterrupt)
                  0x00408e          0x4 LONG 0x42d2 DEFINED (__DMA5Interrupt)?ABSOLUTE (__DMA5Interrupt):ABSOLUTE (__DefaultInterrupt)
                  0x004090          0x4 LONG 0x42d2 DEFINED (__RTCCInterrupt)?ABSOLUTE (__RTCCInterrupt):ABSOLUTE (__DefaultInterrupt)
                  0x004092          0x4 LONG 0x42d2 DEFINED (__Interrupt63)?ABSOLUTE (__Interrupt63):ABSOLUTE (__DefaultInterrupt)
                  0x004094          0x4 LONG 0x42d2 DEFINED (__Interrupt64)?ABSOLUTE (__Interrupt64):ABSOLUTE (__DefaultInterrupt)
                  0x004096          0x4 LONG 0x42d2 DEFINED (__U1ErrInterrupt)?ABSOLUTE (__U1ErrInterrupt):ABSOLUTE (__DefaultInterrupt)
                  0x004098          0x4 LONG 0x42d2 DEFINED (__U2ErrInterrupt)?ABSOLUTE (__U2ErrInterrupt):ABSOLUTE (__DefaultInterrupt)
                  0x00409a          0x4 LONG 0x42d2 DEFINED (__CRCInterrupt)?ABSOLUTE (__CRCInterrupt):ABSOLUTE (__DefaultInterrupt)
                  0x00409c          0x4 LONG 0x42d2 DEFINED (__Interrupt68)?ABSOLUTE (__Interrupt68):ABSOLUTE (__DefaultInterrupt)
                  0x00409e          0x4 LONG 0x42d2 DEFINED (__Interrupt69)?ABSOLUTE (__Interrupt69):ABSOLUTE (__DefaultInterrupt)
                  0x0040a0          0x4 LONG 0x42d2 DEFINED (__Interrupt70)?ABSOLUTE (__Interrupt70):ABSOLUTE (__DefaultInterrupt)
                  0x0040a2          0x4 LONG 0x42d2 DEFINED (__Interrupt71)?ABSOLUTE (__Interrupt71):ABSOLUTE (__DefaultInterrupt)
                  0x0040a4          0x4 LONG 0x42d2 DEFINED (__LVDInterrupt)?ABSOLUTE (__LVDInterrupt):ABSOLUTE (__DefaultInterrupt)
                  0x0040a6          0x4 LONG 0x42d2 DEFINED (__Interrupt73)?ABSOLUTE (__Interrupt73):ABSOLUTE (__DefaultInterrupt)
                  0x0040a8          0x4 LONG 0x42d2 DEFINED (__Interrupt74)?ABSOLUTE (__Interrupt74):ABSOLUTE (__DefaultInterrupt)
                  0x0040aa          0x4 LONG 0x42d2 DEFINED (__Interrupt75)?ABSOLUTE (__Interrupt75):ABSOLUTE (__DefaultInterrupt)
                  0x0040ac          0x4 LONG 0x42d2 DEFINED (__Interrupt76)?ABSOLUTE (__Interrupt76):ABSOLUTE (__DefaultInterrupt)
                  0x0040ae          0x4 LONG 0x42d2 DEFINED (__CTMUInterrupt)?ABSOLUTE (__CTMUInterrupt):ABSOLUTE (__DefaultInterrupt)
                  0x0040b0          0x4 LONG 0x42d2 DEFINED (__Interrupt78)?ABSOLUTE (__Interrupt78):ABSOLUTE (__DefaultInterrupt)
                  0x0040b2          0x4 LONG 0x42d2 DEFINED (__Interrupt79)?ABSOLUTE (__Interrupt79):ABSOLUTE (__DefaultInterrupt)
                  0x0040b4          0x4 LONG 0x42d2 DEFINED (__Interrupt80)?ABSOLUTE (__Interrupt80):ABSOLUTE (__DefaultInterrupt)
                  0x0040b6          0x4 LONG 0x42d2 DEFINED (__U3ErrInterrupt)?ABSOLUTE (__U3ErrInterrupt):ABSOLUTE (__DefaultInterrupt)
                  0x0040b8          0x4 LONG 0x42d2 DEFINED (__U3RXInterrupt)?ABSOLUTE (__U3RXInterrupt):ABSOLUTE (__DefaultInterrupt)
                  0x0040ba          0x4 LONG 0x42d2 DEFINED (__U3TXInterrupt)?ABSOLUTE (__U3TXInterrupt):ABSOLUTE (__DefaultInterrupt)
                  0x0040bc          0x4 LONG 0x42d2 DEFINED (__I2C1BCLInterrupt)?ABSOLUTE (__I2C1BCLInterrupt):ABSOLUTE (__DefaultInterrupt)
                  0x0040be          0x4 LONG 0x42d2 DEFINED (__I2C2BCLInterrupt)?ABSOLUTE (__I2C2BCLInterrupt):ABSOLUTE (__DefaultInterrupt)
                  0x0040c0          0x4 LONG 0x42d2 DEFINED (__USB1Interrupt)?ABSOLUTE (__USB1Interrupt):ABSOLUTE (__DefaultInterrupt)
                  0x0040c2          0x4 LONG 0x42d2 DEFINED (__U4ErrInterrupt)?ABSOLUTE (__U4ErrInterrupt):ABSOLUTE (__DefaultInterrupt)
                  0x0040c4          0x4 LONG 0x42d2 DEFINED (__U4RXInterrupt)?ABSOLUTE (__U4RXInterrupt):ABSOLUTE (__DefaultInterrupt)
                  0x0040c6          0x4 LONG 0x42d2 DEFINED (__U4TXInterrupt)?ABSOLUTE (__U4TXInterrupt):ABSOLUTE (__DefaultInterrupt)
                  0x0040c8          0x4 LONG 0x42d2 DEFINED (__SPI3Interrupt)?ABSOLUTE (__SPI3Interrupt):ABSOLUTE (__DefaultInterrupt)
                  0x0040ca          0x4 LONG 0x42d2 DEFINED (__SPI3TXInterrupt)?ABSOLUTE (__SPI3TXInterrupt):ABSOLUTE (__DefaultInterrupt)
                  0x0040cc          0x4 LONG 0x42d2 DEFINED (__Interrupt92)?ABSOLUTE (__Interrupt92):ABSOLUTE (__DefaultInterrupt)
                  0x0040ce          0x4 LONG 0x42d2 DEFINED (__Interrupt93)?ABSOLUTE (__Interrupt93):ABSOLUTE (__DefaultInterrupt)
                  0x0040d0          0x4 LONG 0x42d2 DEFINED (__Interrupt94)?ABSOLUTE (__Interrupt94):ABSOLUTE (__DefaultInterrupt)
                  0x0040d2          0x4 LONG 0x42d2 DEFINED (__Interrupt95)?ABSOLUTE (__Interrupt95):ABSOLUTE (__DefaultInterrupt)
                  0x0040d4          0x4 LONG 0x42d2 DEFINED (__Interrupt96)?ABSOLUTE (__Interrupt96):ABSOLUTE (__DefaultInterrupt)
                  0x0040d6          0x4 LONG 0x42d2 DEFINED (__Interrupt97)?ABSOLUTE (__Interrupt97):ABSOLUTE (__DefaultInterrupt)
                  0x0040d8          0x4 LONG 0x42d2 DEFINED (__Interrupt98)?ABSOLUTE (__Interrupt98):ABSOLUTE (__DefaultInterrupt)
                  0x0040da          0x4 LONG 0x42d2 DEFINED (__Interrupt99)?ABSOLUTE (__Interrupt99):ABSOLUTE (__DefaultInterrupt)
                  0x0040dc          0x4 LONG 0x42d2 DEFINED (__Interrupt100)?ABSOLUTE (__Interrupt100):ABSOLUTE (__DefaultInterrupt)
                  0x0040de          0x4 LONG 0x42d2 DEFINED (__Interrupt101)?ABSOLUTE (__Interrupt101):ABSOLUTE (__DefaultInterrupt)
                  0x0040e0          0x4 LONG 0x42d2 DEFINED (__Interrupt102)?ABSOLUTE (__Interrupt102):ABSOLUTE (__DefaultInterrupt)
                  0x0040e2          0x4 LONG 0x42d2 DEFINED (__Interrupt103)?ABSOLUTE (__Interrupt103):ABSOLUTE (__DefaultInterrupt)
                  0x0040e4          0x4 LONG 0x42d2 DEFINED (__Interrupt104)?ABSOLUTE (__Interrupt104):ABSOLUTE (__DefaultInterrupt)
                  0x0040e6          0x4 LONG 0x42d2 DEFINED (__Interrupt105)?ABSOLUTE (__Interrupt105):ABSOLUTE (__DefaultInterrupt)
                  0x0040e8          0x4 LONG 0x42d2 DEFINED (__FSTInterrupt)?ABSOLUTE (__FSTInterrupt):ABSOLUTE (__DefaultInterrupt)
                  0x0040ea          0x4 LONG 0x42d2 DEFINED (__Interrupt107)?ABSOLUTE (__Interrupt107):ABSOLUTE (__DefaultInterrupt)
                  0x0040ec          0x4 LONG 0x42d2 DEFINED (__Interrupt108)?ABSOLUTE (__Interrupt108):ABSOLUTE (__DefaultInterrupt)
                  0x0040ee          0x4 LONG 0x42d2 DEFINED (__Interrupt109)?ABSOLUTE (__Interrupt109):ABSOLUTE (__DefaultInterrupt)
                  0x0040f0          0x4 LONG 0x42d2 DEFINED (__Interrupt110)?ABSOLUTE (__Interrupt110):ABSOLUTE (__DefaultInterrupt)
                  0x0040f2          0x4 LONG 0x42d2 DEFINED (__Interrupt111)?ABSOLUTE (__Interrupt111):ABSOLUTE (__DefaultInterrupt)
                  0x0040f4          0x4 LONG 0x42d2 DEFINED (__Interrupt112)?ABSOLUTE (__Interrupt112):ABSOLUTE (__DefaultInterrupt)
                  0x0040f6          0x4 LONG 0x42d2 DEFINED (__Interrupt113)?ABSOLUTE (__Interrupt113):ABSOLUTE (__DefaultInterrupt)
                  0x0040f8          0x4 LONG 0x42d2 DEFINED (__Interrupt114)?ABSOLUTE (__Interrupt114):ABSOLUTE (__DefaultInterrupt)
                  0x0040fa          0x4 LONG 0x42d2 DEFINED (__Interrupt115)?ABSOLUTE (__Interrupt115):ABSOLUTE (__DefaultInterrupt)
                  0x0040fc          0x4 LONG 0x42d2 DEFINED (__Interrupt116)?ABSOLUTE (__Interrupt116):ABSOLUTE (__DefaultInterrupt)
                  0x0040fe          0x4 LONG 0x42d2 DEFINED (__JTAGInterrupt)?ABSOLUTE (__JTAGInterrupt):ABSOLUTE (__DefaultInterrupt)

.aivt             0x004104         0xfc
                  0x004104          0x4 LONG 0x42d2 DEFINED (__AltReservedTrap0)?ABSOLUTE (__AltReservedTrap0):DEFINED (__ReservedTrap0)?ABSOLUTE (__ReservedTrap0):ABSOLUTE (__DefaultInterrupt)
                  0x004106          0x4 LONG 0x42d2 DEFINED (__AltOscillatorFail)?ABSOLUTE (__AltOscillatorFail):DEFINED (__OscillatorFail)?ABSOLUTE (__OscillatorFail):ABSOLUTE (__DefaultInterrupt)
                  0x004108          0x4 LONG 0x42d2 DEFINED (__AltAddressError)?ABSOLUTE (__AltAddressError):DEFINED (__AddressError)?ABSOLUTE (__AddressError):ABSOLUTE (__DefaultInterrupt)
                  0x00410a          0x4 LONG 0x42d2 DEFINED (__AltStackError)?ABSOLUTE (__AltStackError):DEFINED (__StackError)?ABSOLUTE (__StackError):ABSOLUTE (__DefaultInterrupt)
                  0x00410c          0x4 LONG 0x42d2 DEFINED (__AltMathError)?ABSOLUTE (__AltMathError):DEFINED (__MathError)?ABSOLUTE (__MathError):ABSOLUTE (__DefaultInterrupt)
                  0x00410e          0x4 LONG 0x42d2 DEFINED (__AltReservedTrap5)?ABSOLUTE (__AltReservedTrap5):DEFINED (__ReservedTrap5)?ABSOLUTE (__ReservedTrap5):ABSOLUTE (__DefaultInterrupt)
                  0x004110          0x4 LONG 0x42d2 DEFINED (__AltReservedTrap6)?ABSOLUTE (__AltReservedTrap6):DEFINED (__ReservedTrap6)?ABSOLUTE (__ReservedTrap6):ABSOLUTE (__DefaultInterrupt)
                  0x004112          0x4 LONG 0x42d2 DEFINED (__AltReservedTrap7)?ABSOLUTE (__AltReservedTrap7):DEFINED (__ReservedTrap7)?ABSOLUTE (__ReservedTrap7):ABSOLUTE (__DefaultInterrupt)
                  0x004114          0x4 LONG 0x42d2 DEFINED (__AltINT0Interrupt)?ABSOLUTE (__AltINT0Interrupt):DEFINED (__INT0Interrupt)?ABSOLUTE (__INT0Interrupt):ABSOLUTE (__DefaultInterrupt)
                  0x004116          0x4 LONG 0xeef4 DEFINED (__AltIC1Interrupt)?ABSOLUTE (__AltIC1Interrupt):DEFINED (__IC1Interrupt)?ABSOLUTE (__IC1Interrupt):ABSOLUTE (__DefaultInterrupt)
                  0x004118          0x4 LONG 0x42d2 DEFINED (__AltOC1Interrupt)?ABSOLUTE (__AltOC1Interrupt):DEFINED (__OC1Interrupt)?ABSOLUTE (__OC1Interrupt):ABSOLUTE (__DefaultInterrupt)
                  0x00411a          0x4 LONG 0xf05a DEFINED (__AltT1Interrupt)?ABSOLUTE (__AltT1Interrupt):DEFINED (__T1Interrupt)?ABSOLUTE (__T1Interrupt):ABSOLUTE (__DefaultInterrupt)
                  0x00411c          0x4 LONG 0x42d2 DEFINED (__AltDMA0Interrupt)?ABSOLUTE (__AltDMA0Interrupt):DEFINED (__DMA0Interrupt)?ABSOLUTE (__DMA0Interrupt):ABSOLUTE (__DefaultInterrupt)
                  0x00411e          0x4 LONG 0x42d2 DEFINED (__AltIC2Interrupt)?ABSOLUTE (__AltIC2Interrupt):DEFINED (__IC2Interrupt)?ABSOLUTE (__IC2Interrupt):ABSOLUTE (__DefaultInterrupt)
                  0x004120          0x4 LONG 0x42d2 DEFINED (__AltOC2Interrupt)?ABSOLUTE (__AltOC2Interrupt):DEFINED (__OC2Interrupt)?ABSOLUTE (__OC2Interrupt):ABSOLUTE (__DefaultInterrupt)
                  0x004122          0x4 LONG 0x42d2 DEFINED (__AltT2Interrupt)?ABSOLUTE (__AltT2Interrupt):DEFINED (__T2Interrupt)?ABSOLUTE (__T2Interrupt):ABSOLUTE (__DefaultInterrupt)
                  0x004124          0x4 LONG 0xeec6 DEFINED (__AltT3Interrupt)?ABSOLUTE (__AltT3Interrupt):DEFINED (__T3Interrupt)?ABSOLUTE (__T3Interrupt):ABSOLUTE (__DefaultInterrupt)
                  0x004126          0x4 LONG 0x42d2 DEFINED (__AltSPI1Interrupt)?ABSOLUTE (__AltSPI1Interrupt):DEFINED (__SPI1Interrupt)?ABSOLUTE (__SPI1Interrupt):ABSOLUTE (__DefaultInterrupt)
                  0x004128          0x4 LONG 0x42d2 DEFINED (__AltSPI1TXInterrupt)?ABSOLUTE (__AltSPI1TXInterrupt):DEFINED (__SPI1TXInterrupt)?ABSOLUTE (__SPI1TXInterrupt):ABSOLUTE (__DefaultInterrupt)
                  0x00412a          0x4 LONG 0x42d2 DEFINED (__AltU1RXInterrupt)?ABSOLUTE (__AltU1RXInterrupt):DEFINED (__U1RXInterrupt)?ABSOLUTE (__U1RXInterrupt):ABSOLUTE (__DefaultInterrupt)
                  0x00412c          0x4 LONG 0x42d2 DEFINED (__AltU1TXInterrupt)?ABSOLUTE (__AltU1TXInterrupt):DEFINED (__U1TXInterrupt)?ABSOLUTE (__U1TXInterrupt):ABSOLUTE (__DefaultInterrupt)
                  0x00412e          0x4 LONG 0x42d2 DEFINED (__AltADC1Interrupt)?ABSOLUTE (__AltADC1Interrupt):DEFINED (__ADC1Interrupt)?ABSOLUTE (__ADC1Interrupt):ABSOLUTE (__DefaultInterrupt)
                  0x004130          0x4 LONG 0x42d2 DEFINED (__AltDMA1Interrupt)?ABSOLUTE (__AltDMA1Interrupt):DEFINED (__DMA1Interrupt)?ABSOLUTE (__DMA1Interrupt):ABSOLUTE (__DefaultInterrupt)
                  0x004132          0x4 LONG 0x42d2 DEFINED (__AltInterrupt15)?ABSOLUTE (__AltInterrupt15):DEFINED (__Interrupt15)?ABSOLUTE (__Interrupt15):ABSOLUTE (__DefaultInterrupt)
                  0x004134          0x4 LONG 0x42d2 DEFINED (__AltSI2C1Interrupt)?ABSOLUTE (__AltSI2C1Interrupt):DEFINED (__SI2C1Interrupt)?ABSOLUTE (__SI2C1Interrupt):ABSOLUTE (__DefaultInterrupt)
                  0x004136          0x4 LONG 0x42d2 DEFINED (__AltMI2C1Interrupt)?ABSOLUTE (__AltMI2C1Interrupt):DEFINED (__MI2C1Interrupt)?ABSOLUTE (__MI2C1Interrupt):ABSOLUTE (__DefaultInterrupt)
                  0x004138          0x4 LONG 0x42d2 DEFINED (__AltCompInterrupt)?ABSOLUTE (__AltCompInterrupt):DEFINED (__CompInterrupt)?ABSOLUTE (__CompInterrupt):ABSOLUTE (__DefaultInterrupt)
                  0x00413a          0x4 LONG 0x42d2 DEFINED (__AltCNInterrupt)?ABSOLUTE (__AltCNInterrupt):DEFINED (__CNInterrupt)?ABSOLUTE (__CNInterrupt):ABSOLUTE (__DefaultInterrupt)
                  0x00413c          0x4 LONG 0x42d2 DEFINED (__AltINT1Interrupt)?ABSOLUTE (__AltINT1Interrupt):DEFINED (__INT1Interrupt)?ABSOLUTE (__INT1Interrupt):ABSOLUTE (__DefaultInterrupt)
                  0x00413e          0x4 LONG 0x42d2 DEFINED (__AltInterrupt21)?ABSOLUTE (__AltInterrupt21):DEFINED (__Interrupt21)?ABSOLUTE (__Interrupt21):ABSOLUTE (__DefaultInterrupt)
                  0x004140          0x4 LONG 0x42d2 DEFINED (__AltInterrupt22)?ABSOLUTE (__AltInterrupt22):DEFINED (__Interrupt22)?ABSOLUTE (__Interrupt22):ABSOLUTE (__DefaultInterrupt)
                  0x004142          0x4 LONG 0x42d2 DEFINED (__AltInterrupt23)?ABSOLUTE (__AltInterrupt23):DEFINED (__Interrupt23)?ABSOLUTE (__Interrupt23):ABSOLUTE (__DefaultInterrupt)
                  0x004144          0x4 LONG 0x42d2 DEFINED (__AltDMA2Interrupt)?ABSOLUTE (__AltDMA2Interrupt):DEFINED (__DMA2Interrupt)?ABSOLUTE (__DMA2Interrupt):ABSOLUTE (__DefaultInterrupt)
                  0x004146          0x4 LONG 0x42d2 DEFINED (__AltOC3Interrupt)?ABSOLUTE (__AltOC3Interrupt):DEFINED (__OC3Interrupt)?ABSOLUTE (__OC3Interrupt):ABSOLUTE (__DefaultInterrupt)
                  0x004148          0x4 LONG 0x42d2 DEFINED (__AltOC4Interrupt)?ABSOLUTE (__AltOC4Interrupt):DEFINED (__OC4Interrupt)?ABSOLUTE (__OC4Interrupt):ABSOLUTE (__DefaultInterrupt)
                  0x00414a          0x4 LONG 0x42d2 DEFINED (__AltT4Interrupt)?ABSOLUTE (__AltT4Interrupt):DEFINED (__T4Interrupt)?ABSOLUTE (__T4Interrupt):ABSOLUTE (__DefaultInterrupt)
                  0x00414c          0x4 LONG 0x42d2 DEFINED (__AltT5Interrupt)?ABSOLUTE (__AltT5Interrupt):DEFINED (__T5Interrupt)?ABSOLUTE (__T5Interrupt):ABSOLUTE (__DefaultInterrupt)
                  0x00414e          0x4 LONG 0x42d2 DEFINED (__AltINT2Interrupt)?ABSOLUTE (__AltINT2Interrupt):DEFINED (__INT2Interrupt)?ABSOLUTE (__INT2Interrupt):ABSOLUTE (__DefaultInterrupt)
                  0x004150          0x4 LONG 0x42d2 DEFINED (__AltU2RXInterrupt)?ABSOLUTE (__AltU2RXInterrupt):DEFINED (__U2RXInterrupt)?ABSOLUTE (__U2RXInterrupt):ABSOLUTE (__DefaultInterrupt)
                  0x004152          0x4 LONG 0x42d2 DEFINED (__AltU2TXInterrupt)?ABSOLUTE (__AltU2TXInterrupt):DEFINED (__U2TXInterrupt)?ABSOLUTE (__U2TXInterrupt):ABSOLUTE (__DefaultInterrupt)
                  0x004154          0x4 LONG 0x42d2 DEFINED (__AltSPI2Interrupt)?ABSOLUTE (__AltSPI2Interrupt):DEFINED (__SPI2Interrupt)?ABSOLUTE (__SPI2Interrupt):ABSOLUTE (__DefaultInterrupt)
                  0x004156          0x4 LONG 0x42d2 DEFINED (__AltSPI2TXInterrupt)?ABSOLUTE (__AltSPI2TXInterrupt):DEFINED (__SPI2TXInterrupt)?ABSOLUTE (__SPI2TXInterrupt):ABSOLUTE (__DefaultInterrupt)
                  0x004158          0x4 LONG 0x42d2 DEFINED (__AltInterrupt34)?ABSOLUTE (__AltInterrupt34):DEFINED (__Interrupt34)?ABSOLUTE (__Interrupt34):ABSOLUTE (__DefaultInterrupt)
                  0x00415a          0x4 LONG 0x42d2 DEFINED (__AltInterrupt35)?ABSOLUTE (__AltInterrupt35):DEFINED (__Interrupt35)?ABSOLUTE (__Interrupt35):ABSOLUTE (__DefaultInterrupt)
                  0x00415c          0x4 LONG 0x42d2 DEFINED (__AltDMA3Interrupt)?ABSOLUTE (__AltDMA3Interrupt):DEFINED (__DMA3Interrupt)?ABSOLUTE (__DMA3Interrupt):ABSOLUTE (__DefaultInterrupt)
                  0x00415e          0x4 LONG 0x42d2 DEFINED (__AltIC3Interrupt)?ABSOLUTE (__AltIC3Interrupt):DEFINED (__IC3Interrupt)?ABSOLUTE (__IC3Interrupt):ABSOLUTE (__DefaultInterrupt)
                  0x004160          0x4 LONG 0x42d2 DEFINED (__AltIC4Interrupt)?ABSOLUTE (__AltIC4Interrupt):DEFINED (__IC4Interrupt)?ABSOLUTE (__IC4Interrupt):ABSOLUTE (__DefaultInterrupt)
                  0x004162          0x4 LONG 0x42d2 DEFINED (__AltIC5Interrupt)?ABSOLUTE (__AltIC5Interrupt):DEFINED (__IC5Interrupt)?ABSOLUTE (__IC5Interrupt):ABSOLUTE (__DefaultInterrupt)
                  0x004164          0x4 LONG 0x42d2 DEFINED (__AltIC6Interrupt)?ABSOLUTE (__AltIC6Interrupt):DEFINED (__IC6Interrupt)?ABSOLUTE (__IC6Interrupt):ABSOLUTE (__DefaultInterrupt)
                  0x004166          0x4 LONG 0x42d2 DEFINED (__AltOC5Interrupt)?ABSOLUTE (__AltOC5Interrupt):DEFINED (__OC5Interrupt)?ABSOLUTE (__OC5Interrupt):ABSOLUTE (__DefaultInterrupt)
                  0x004168          0x4 LONG 0x42d2 DEFINED (__AltOC6Interrupt)?ABSOLUTE (__AltOC6Interrupt):DEFINED (__OC6Interrupt)?ABSOLUTE (__OC6Interrupt):ABSOLUTE (__DefaultInterrupt)
                  0x00416a          0x4 LONG 0x42d2 DEFINED (__AltInterrupt43)?ABSOLUTE (__AltInterrupt43):DEFINED (__Interrupt43)?ABSOLUTE (__Interrupt43):ABSOLUTE (__DefaultInterrupt)
                  0x00416c          0x4 LONG 0x42d2 DEFINED (__AltInterrupt44)?ABSOLUTE (__AltInterrupt44):DEFINED (__Interrupt44)?ABSOLUTE (__Interrupt44):ABSOLUTE (__DefaultInterrupt)
                  0x00416e          0x4 LONG 0x42d2 DEFINED (__AltPMPInterrupt)?ABSOLUTE (__AltPMPInterrupt):DEFINED (__PMPInterrupt)?ABSOLUTE (__PMPInterrupt):ABSOLUTE (__DefaultInterrupt)
                  0x004170          0x4 LONG 0x42d2 DEFINED (__AltDMA4Interrupt)?ABSOLUTE (__AltDMA4Interrupt):DEFINED (__DMA4Interrupt)?ABSOLUTE (__DMA4Interrupt):ABSOLUTE (__DefaultInterrupt)
                  0x004172          0x4 LONG 0x42d2 DEFINED (__AltInterrupt47)?ABSOLUTE (__AltInterrupt47):DEFINED (__Interrupt47)?ABSOLUTE (__Interrupt47):ABSOLUTE (__DefaultInterrupt)
                  0x004174          0x4 LONG 0x42d2 DEFINED (__AltInterrupt48)?ABSOLUTE (__AltInterrupt48):DEFINED (__Interrupt48)?ABSOLUTE (__Interrupt48):ABSOLUTE (__DefaultInterrupt)
                  0x004176          0x4 LONG 0x42d2 DEFINED (__AltSI2C2Interrupt)?ABSOLUTE (__AltSI2C2Interrupt):DEFINED (__SI2C2Interrupt)?ABSOLUTE (__SI2C2Interrupt):ABSOLUTE (__DefaultInterrupt)
                  0x004178          0x4 LONG 0x42d2 DEFINED (__AltMI2C2Interrupt)?ABSOLUTE (__AltMI2C2Interrupt):DEFINED (__MI2C2Interrupt)?ABSOLUTE (__MI2C2Interrupt):ABSOLUTE (__DefaultInterrupt)
                  0x00417a          0x4 LONG 0x42d2 DEFINED (__AltInterrupt51)?ABSOLUTE (__AltInterrupt51):DEFINED (__Interrupt51)?ABSOLUTE (__Interrupt51):ABSOLUTE (__DefaultInterrupt)
                  0x00417c          0x4 LONG 0x42d2 DEFINED (__AltInterrupt52)?ABSOLUTE (__AltInterrupt52):DEFINED (__Interrupt52)?ABSOLUTE (__Interrupt52):ABSOLUTE (__DefaultInterrupt)
                  0x00417e          0x4 LONG 0x42d2 DEFINED (__AltINT3Interrupt)?ABSOLUTE (__AltINT3Interrupt):DEFINED (__INT3Interrupt)?ABSOLUTE (__INT3Interrupt):ABSOLUTE (__DefaultInterrupt)
                  0x004180          0x4 LONG 0x42d2 DEFINED (__AltINT4Interrupt)?ABSOLUTE (__AltINT4Interrupt):DEFINED (__INT4Interrupt)?ABSOLUTE (__INT4Interrupt):ABSOLUTE (__DefaultInterrupt)
                  0x004182          0x4 LONG 0x42d2 DEFINED (__AltCRYPTOInterrupt)?ABSOLUTE (__AltCRYPTOInterrupt):DEFINED (__CRYPTOInterrupt)?ABSOLUTE (__CRYPTOInterrupt):ABSOLUTE (__DefaultInterrupt)
                  0x004184          0x4 LONG 0x42d2 DEFINED (__AltCRYPTOKeyInterrupt)?ABSOLUTE (__AltCRYPTOKeyInterrupt):DEFINED (__CRYPTOKeyInterrupt)?ABSOLUTE (__CRYPTOKeyInterrupt):ABSOLUTE (__DefaultInterrupt)
                  0x004186          0x4 LONG 0x42d2 DEFINED (__AltInterrupt57)?ABSOLUTE (__AltInterrupt57):DEFINED (__Interrupt57)?ABSOLUTE (__Interrupt57):ABSOLUTE (__DefaultInterrupt)
                  0x004188          0x4 LONG 0x42d2 DEFINED (__AltSPI1RXInterrupt)?ABSOLUTE (__AltSPI1RXInterrupt):DEFINED (__SPI1RXInterrupt)?ABSOLUTE (__SPI1RXInterrupt):ABSOLUTE (__DefaultInterrupt)
                  0x00418a          0x4 LONG 0x42d2 DEFINED (__AltSPI2RXInterrupt)?ABSOLUTE (__AltSPI2RXInterrupt):DEFINED (__SPI2RXInterrupt)?ABSOLUTE (__SPI2RXInterrupt):ABSOLUTE (__DefaultInterrupt)
                  0x00418c          0x4 LONG 0x42d2 DEFINED (__AltSPI3RXInterrupt)?ABSOLUTE (__AltSPI3RXInterrupt):DEFINED (__SPI3RXInterrupt)?ABSOLUTE (__SPI3RXInterrupt):ABSOLUTE (__DefaultInterrupt)
                  0x00418e          0x4 LONG 0x42d2 DEFINED (__AltDMA5Interrupt)?ABSOLUTE (__AltDMA5Interrupt):DEFINED (__DMA5Interrupt)?ABSOLUTE (__DMA5Interrupt):ABSOLUTE (__DefaultInterrupt)
                  0x004190          0x4 LONG 0x42d2 DEFINED (__AltRTCCInterrupt)?ABSOLUTE (__AltRTCCInterrupt):DEFINED (__RTCCInterrupt)?ABSOLUTE (__RTCCInterrupt):ABSOLUTE (__DefaultInterrupt)
                  0x004192          0x4 LONG 0x42d2 DEFINED (__AltInterrupt63)?ABSOLUTE (__AltInterrupt63):DEFINED (__Interrupt63)?ABSOLUTE (__Interrupt63):ABSOLUTE (__DefaultInterrupt)
                  0x004194          0x4 LONG 0x42d2 DEFINED (__AltInterrupt64)?ABSOLUTE (__AltInterrupt64):DEFINED (__Interrupt64)?ABSOLUTE (__Interrupt64):ABSOLUTE (__DefaultInterrupt)
                  0x004196          0x4 LONG 0x42d2 DEFINED (__AltU1ErrInterrupt)?ABSOLUTE (__AltU1ErrInterrupt):DEFINED (__U1ErrInterrupt)?ABSOLUTE (__U1ErrInterrupt):ABSOLUTE (__DefaultInterrupt)
                  0x004198          0x4 LONG 0x42d2 DEFINED (__AltU2ErrInterrupt)?ABSOLUTE (__AltU2ErrInterrupt):DEFINED (__U2ErrInterrupt)?ABSOLUTE (__U2ErrInterrupt):ABSOLUTE (__DefaultInterrupt)
                  0x00419a          0x4 LONG 0x42d2 DEFINED (__AltCRCInterrupt)?ABSOLUTE (__AltCRCInterrupt):DEFINED (__CRCInterrupt)?ABSOLUTE (__CRCInterrupt):ABSOLUTE (__DefaultInterrupt)
                  0x00419c          0x4 LONG 0x42d2 DEFINED (__AltInterrupt68)?ABSOLUTE (__AltInterrupt68):DEFINED (__Interrupt68)?ABSOLUTE (__Interrupt68):ABSOLUTE (__DefaultInterrupt)
                  0x00419e          0x4 LONG 0x42d2 DEFINED (__AltInterrupt69)?ABSOLUTE (__AltInterrupt69):DEFINED (__Interrupt69)?ABSOLUTE (__Interrupt69):ABSOLUTE (__DefaultInterrupt)
                  0x0041a0          0x4 LONG 0x42d2 DEFINED (__AltInterrupt70)?ABSOLUTE (__AltInterrupt70):DEFINED (__Interrupt70)?ABSOLUTE (__Interrupt70):ABSOLUTE (__DefaultInterrupt)
                  0x0041a2          0x4 LONG 0x42d2 DEFINED (__AltInterrupt71)?ABSOLUTE (__AltInterrupt71):DEFINED (__Interrupt71)?ABSOLUTE (__Interrupt71):ABSOLUTE (__DefaultInterrupt)
                  0x0041a4          0x4 LONG 0x42d2 DEFINED (__AltLVDInterrupt)?ABSOLUTE (__AltLVDInterrupt):DEFINED (__LVDInterrupt)?ABSOLUTE (__LVDInterrupt):ABSOLUTE (__DefaultInterrupt)
                  0x0041a6          0x4 LONG 0x42d2 DEFINED (__AltInterrupt73)?ABSOLUTE (__AltInterrupt73):DEFINED (__Interrupt73)?ABSOLUTE (__Interrupt73):ABSOLUTE (__DefaultInterrupt)
                  0x0041a8          0x4 LONG 0x42d2 DEFINED (__AltInterrupt74)?ABSOLUTE (__AltInterrupt74):DEFINED (__Interrupt74)?ABSOLUTE (__Interrupt74):ABSOLUTE (__DefaultInterrupt)
                  0x0041aa          0x4 LONG 0x42d2 DEFINED (__AltInterrupt75)?ABSOLUTE (__AltInterrupt75):DEFINED (__Interrupt75)?ABSOLUTE (__Interrupt75):ABSOLUTE (__DefaultInterrupt)
                  0x0041ac          0x4 LONG 0x42d2 DEFINED (__AltInterrupt76)?ABSOLUTE (__AltInterrupt76):DEFINED (__Interrupt76)?ABSOLUTE (__Interrupt76):ABSOLUTE (__DefaultInterrupt)
                  0x0041ae          0x4 LONG 0x42d2 DEFINED (__AltCTMUInterrupt)?ABSOLUTE (__AltCTMUInterrupt):DEFINED (__CTMUInterrupt)?ABSOLUTE (__CTMUInterrupt):ABSOLUTE (__DefaultInterrupt)
                  0x0041b0          0x4 LONG 0x42d2 DEFINED (__AltInterrupt78)?ABSOLUTE (__AltInterrupt78):DEFINED (__Interrupt78)?ABSOLUTE (__Interrupt78):ABSOLUTE (__DefaultInterrupt)
                  0x0041b2          0x4 LONG 0x42d2 DEFINED (__AltInterrupt79)?ABSOLUTE (__AltInterrupt79):DEFINED (__Interrupt79)?ABSOLUTE (__Interrupt79):ABSOLUTE (__DefaultInterrupt)
                  0x0041b4          0x4 LONG 0x42d2 DEFINED (__AltInterrupt80)?ABSOLUTE (__AltInterrupt80):DEFINED (__Interrupt80)?ABSOLUTE (__Interrupt80):ABSOLUTE (__DefaultInterrupt)
                  0x0041b6          0x4 LONG 0x42d2 DEFINED (__AltU3ErrInterrupt)?ABSOLUTE (__AltU3ErrInterrupt):DEFINED (__U3ErrInterrupt)?ABSOLUTE (__U3ErrInterrupt):ABSOLUTE (__DefaultInterrupt)
                  0x0041b8          0x4 LONG 0x42d2 DEFINED (__AltU3RXInterrupt)?ABSOLUTE (__AltU3RXInterrupt):DEFINED (__U3RXInterrupt)?ABSOLUTE (__U3RXInterrupt):ABSOLUTE (__DefaultInterrupt)
                  0x0041ba          0x4 LONG 0x42d2 DEFINED (__AltU3TXInterrupt)?ABSOLUTE (__AltU3TXInterrupt):DEFINED (__U3TXInterrupt)?ABSOLUTE (__U3TXInterrupt):ABSOLUTE (__DefaultInterrupt)
                  0x0041bc          0x4 LONG 0x42d2 DEFINED (__AltI2C1BCLInterrupt)?ABSOLUTE (__AltI2C1BCLInterrupt):DEFINED (__I2C1BCLInterrupt)?ABSOLUTE (__I2C1BCLInterrupt):ABSOLUTE (__DefaultInterrupt)
                  0x0041be          0x4 LONG 0x42d2 DEFINED (__AltI2C2BCLInterrupt)?ABSOLUTE (__AltI2C2BCLInterrupt):DEFINED (__I2C2BCLInterrupt)?ABSOLUTE (__I2C2BCLInterrupt):ABSOLUTE (__DefaultInterrupt)
                  0x0041c0          0x4 LONG 0x42d2 DEFINED (__AltUSB1Interrupt)?ABSOLUTE (__AltUSB1Interrupt):DEFINED (__USB1Interrupt)?ABSOLUTE (__USB1Interrupt):ABSOLUTE (__DefaultInterrupt)
                  0x0041c2          0x4 LONG 0x42d2 DEFINED (__AltU4ErrInterrupt)?ABSOLUTE (__AltU4ErrInterrupt):DEFINED (__U4ErrInterrupt)?ABSOLUTE (__U4ErrInterrupt):ABSOLUTE (__DefaultInterrupt)
                  0x0041c4          0x4 LONG 0x42d2 DEFINED (__AltU4RXInterrupt)?ABSOLUTE (__AltU4RXInterrupt):DEFINED (__U4RXInterrupt)?ABSOLUTE (__U4RXInterrupt):ABSOLUTE (__DefaultInterrupt)
                  0x0041c6          0x4 LONG 0x42d2 DEFINED (__AltU4TXInterrupt)?ABSOLUTE (__AltU4TXInterrupt):DEFINED (__U4TXInterrupt)?ABSOLUTE (__U4TXInterrupt):ABSOLUTE (__DefaultInterrupt)
                  0x0041c8          0x4 LONG 0x42d2 DEFINED (__AltSPI3Interrupt)?ABSOLUTE (__AltSPI3Interrupt):DEFINED (__SPI3Interrupt)?ABSOLUTE (__SPI3Interrupt):ABSOLUTE (__DefaultInterrupt)
                  0x0041ca          0x4 LONG 0x42d2 DEFINED (__AltSPI3TXInterrupt)?ABSOLUTE (__AltSPI3TXInterrupt):DEFINED (__SPI3TXInterrupt)?ABSOLUTE (__SPI3TXInterrupt):ABSOLUTE (__DefaultInterrupt)
                  0x0041cc          0x4 LONG 0x42d2 DEFINED (__AltInterrupt92)?ABSOLUTE (__AltInterrupt92):DEFINED (__Interrupt92)?ABSOLUTE (__Interrupt92):ABSOLUTE (__DefaultInterrupt)
                  0x0041ce          0x4 LONG 0x42d2 DEFINED (__AltInterrupt93)?ABSOLUTE (__AltInterrupt93):DEFINED (__Interrupt93)?ABSOLUTE (__Interrupt93):ABSOLUTE (__DefaultInterrupt)
                  0x0041d0          0x4 LONG 0x42d2 DEFINED (__AltInterrupt94)?ABSOLUTE (__AltInterrupt94):DEFINED (__Interrupt94)?ABSOLUTE (__Interrupt94):ABSOLUTE (__DefaultInterrupt)
                  0x0041d2          0x4 LONG 0x42d2 DEFINED (__AltInterrupt95)?ABSOLUTE (__AltInterrupt95):DEFINED (__Interrupt95)?ABSOLUTE (__Interrupt95):ABSOLUTE (__DefaultInterrupt)
                  0x0041d4          0x4 LONG 0x42d2 DEFINED (__AltInterrupt96)?ABSOLUTE (__AltInterrupt96):DEFINED (__Interrupt96)?ABSOLUTE (__Interrupt96):ABSOLUTE (__DefaultInterrupt)
                  0x0041d6          0x4 LONG 0x42d2 DEFINED (__AltInterrupt97)?ABSOLUTE (__AltInterrupt97):DEFINED (__Interrupt97)?ABSOLUTE (__Interrupt97):ABSOLUTE (__DefaultInterrupt)
                  0x0041d8          0x4 LONG 0x42d2 DEFINED (__AltInterrupt98)?ABSOLUTE (__AltInterrupt98):DEFINED (__Interrupt98)?ABSOLUTE (__Interrupt98):ABSOLUTE (__DefaultInterrupt)
                  0x0041da          0x4 LONG 0x42d2 DEFINED (__AltInterrupt99)?ABSOLUTE (__AltInterrupt99):DEFINED (__Interrupt99)?ABSOLUTE (__Interrupt99):ABSOLUTE (__DefaultInterrupt)
                  0x0041dc          0x4 LONG 0x42d2 DEFINED (__AltInterrupt100)?ABSOLUTE (__AltInterrupt100):DEFINED (__Interrupt100)?ABSOLUTE (__Interrupt100):ABSOLUTE (__DefaultInterrupt)
                  0x0041de          0x4 LONG 0x42d2 DEFINED (__AltInterrupt101)?ABSOLUTE (__AltInterrupt101):DEFINED (__Interrupt101)?ABSOLUTE (__Interrupt101):ABSOLUTE (__DefaultInterrupt)
                  0x0041e0          0x4 LONG 0x42d2 DEFINED (__AltInterrupt102)?ABSOLUTE (__AltInterrupt102):DEFINED (__Interrupt102)?ABSOLUTE (__Interrupt102):ABSOLUTE (__DefaultInterrupt)
                  0x0041e2          0x4 LONG 0x42d2 DEFINED (__AltInterrupt103)?ABSOLUTE (__AltInterrupt103):DEFINED (__Interrupt103)?ABSOLUTE (__Interrupt103):ABSOLUTE (__DefaultInterrupt)
                  0x0041e4          0x4 LONG 0x42d2 DEFINED (__AltInterrupt104)?ABSOLUTE (__AltInterrupt104):DEFINED (__Interrupt104)?ABSOLUTE (__Interrupt104):ABSOLUTE (__DefaultInterrupt)
                  0x0041e6          0x4 LONG 0x42d2 DEFINED (__AltInterrupt105)?ABSOLUTE (__AltInterrupt105):DEFINED (__Interrupt105)?ABSOLUTE (__Interrupt105):ABSOLUTE (__DefaultInterrupt)
                  0x0041e8          0x4 LONG 0x42d2 DEFINED (__AltFSTInterrupt)?ABSOLUTE (__AltFSTInterrupt):DEFINED (__FSTInterrupt)?ABSOLUTE (__FSTInterrupt):ABSOLUTE (__DefaultInterrupt)
                  0x0041ea          0x4 LONG 0x42d2 DEFINED (__AltInterrupt107)?ABSOLUTE (__AltInterrupt107):DEFINED (__Interrupt107)?ABSOLUTE (__Interrupt107):ABSOLUTE (__DefaultInterrupt)
                  0x0041ec          0x4 LONG 0x42d2 DEFINED (__AltInterrupt108)?ABSOLUTE (__AltInterrupt108):DEFINED (__Interrupt108)?ABSOLUTE (__Interrupt108):ABSOLUTE (__DefaultInterrupt)
                  0x0041ee          0x4 LONG 0x42d2 DEFINED (__AltInterrupt109)?ABSOLUTE (__AltInterrupt109):DEFINED (__Interrupt109)?ABSOLUTE (__Interrupt109):ABSOLUTE (__DefaultInterrupt)
                  0x0041f0          0x4 LONG 0x42d2 DEFINED (__AltInterrupt110)?ABSOLUTE (__AltInterrupt110):DEFINED (__Interrupt110)?ABSOLUTE (__Interrupt110):ABSOLUTE (__DefaultInterrupt)
                  0x0041f2          0x4 LONG 0x42d2 DEFINED (__AltInterrupt111)?ABSOLUTE (__AltInterrupt111):DEFINED (__Interrupt111)?ABSOLUTE (__Interrupt111):ABSOLUTE (__DefaultInterrupt)
                  0x0041f4          0x4 LONG 0x42d2 DEFINED (__AltInterrupt112)?ABSOLUTE (__AltInterrupt112):DEFINED (__Interrupt112)?ABSOLUTE (__Interrupt112):ABSOLUTE (__DefaultInterrupt)
                  0x0041f6          0x4 LONG 0x42d2 DEFINED (__AltInterrupt113)?ABSOLUTE (__AltInterrupt113):DEFINED (__Interrupt113)?ABSOLUTE (__Interrupt113):ABSOLUTE (__DefaultInterrupt)
                  0x0041f8          0x4 LONG 0x42d2 DEFINED (__AltInterrupt114)?ABSOLUTE (__AltInterrupt114):DEFINED (__Interrupt114)?ABSOLUTE (__Interrupt114):ABSOLUTE (__DefaultInterrupt)
                  0x0041fa          0x4 LONG 0x42d2 DEFINED (__AltInterrupt115)?ABSOLUTE (__AltInterrupt115):DEFINED (__Interrupt115)?ABSOLUTE (__Interrupt115):ABSOLUTE (__DefaultInterrupt)
                  0x0041fc          0x4 LONG 0x42d2 DEFINED (__AltInterrupt116)?ABSOLUTE (__AltInterrupt116):DEFINED (__Interrupt116)?ABSOLUTE (__Interrupt116):ABSOLUTE (__DefaultInterrupt)
                  0x0041fe          0x4 LONG 0x42d2 DEFINED (__AltJTAGInterrupt)?ABSOLUTE (__AltJTAGInterrupt):DEFINED (__JTAGInterrupt)?ABSOLUTE (__JTAGInterrupt):ABSOLUTE (__DefaultInterrupt)
                    0x0000                  WREG0 = 0x0
                    0x0000                  _WREG0 = 0x0
                    0x0002                  WREG1 = 0x2
                    0x0002                  _WREG1 = 0x2
                    0x0004                  WREG2 = 0x4
                    0x0004                  _WREG2 = 0x4
                    0x0006                  WREG3 = 0x6
                    0x0006                  _WREG3 = 0x6
                    0x0008                  WREG4 = 0x8
                    0x0008                  _WREG4 = 0x8
                    0x000a                  WREG5 = 0xa
                    0x000a                  _WREG5 = 0xa
                    0x000c                  WREG6 = 0xc
                    0x000c                  _WREG6 = 0xc
                    0x000e                  WREG7 = 0xe
                    0x000e                  _WREG7 = 0xe
                    0x0010                  WREG8 = 0x10
                    0x0010                  _WREG8 = 0x10
                    0x0012                  WREG9 = 0x12
                    0x0012                  _WREG9 = 0x12
                    0x0014                  WREG10 = 0x14
                    0x0014                  _WREG10 = 0x14
                    0x0016                  WREG11 = 0x16
                    0x0016                  _WREG11 = 0x16
                    0x0018                  WREG12 = 0x18
                    0x0018                  _WREG12 = 0x18
                    0x001a                  WREG13 = 0x1a
                    0x001a                  _WREG13 = 0x1a
                    0x001c                  WREG14 = 0x1c
                    0x001c                  _WREG14 = 0x1c
                    0x001e                  WREG15 = 0x1e
                    0x001e                  _WREG15 = 0x1e
                    0x0020                  SPLIM = 0x20
                    0x0020                  _SPLIM = 0x20
                    0x002e                  PCL = 0x2e
                    0x002e                  _PCL = 0x2e
                    0x0030                  PCH = 0x30
                    0x0030                  _PCH = 0x30
                    0x0032                  DSRPAG = 0x32
                    0x0032                  _DSRPAG = 0x32
                    0x0032                  _DSRPAGbits = 0x32
                    0x0034                  DSWPAG = 0x34
                    0x0034                  _DSWPAG = 0x34
                    0x0034                  _DSWPAGbits = 0x34
                    0x0036                  RCOUNT = 0x36
                    0x0036                  _RCOUNT = 0x36
                    0x0042                  SR = 0x42
                    0x0042                  _SR = 0x42
                    0x0042                  _SRbits = 0x42
                    0x0044                  CORCON = 0x44
                    0x0044                  _CORCON = 0x44
                    0x0044                  _CORCONbits = 0x44
                    0x0052                  DISICNT = 0x52
                    0x0052                  _DISICNT = 0x52
                    0x0052                  _DISICNTbits = 0x52
                    0x0054                  TBLPAG = 0x54
                    0x0054                  _TBLPAG = 0x54
                    0x0054                  _TBLPAGbits = 0x54
                    0x0056                  CNPD1 = 0x56
                    0x0056                  _CNPD1 = 0x56
                    0x0056                  _CNPD1bits = 0x56
                    0x0058                  CNPD2 = 0x58
                    0x0058                  _CNPD2 = 0x58
                    0x0058                  _CNPD2bits = 0x58
                    0x005a                  CNPD3 = 0x5a
                    0x005a                  _CNPD3 = 0x5a
                    0x0062                  CNEN1 = 0x62
                    0x0062                  _CNEN1 = 0x62
                    0x0062                  _CNEN1bits = 0x62
                    0x0064                  CNEN2 = 0x64
                    0x0064                  _CNEN2 = 0x64
                    0x0064                  _CNEN2bits = 0x64
                    0x0066                  CNEN3 = 0x66
                    0x0066                  _CNEN3 = 0x66
                    0x006e                  CNPU1 = 0x6e
                    0x006e                  _CNPU1 = 0x6e
                    0x006e                  _CNPU1bits = 0x6e
                    0x0070                  CNPU2 = 0x70
                    0x0070                  _CNPU2 = 0x70
                    0x0070                  _CNPU2bits = 0x70
                    0x0072                  CNPU3 = 0x72
                    0x0072                  _CNPU3 = 0x72
                    0x0080                  INTCON1 = 0x80
                    0x0080                  _INTCON1 = 0x80
                    0x0080                  _INTCON1bits = 0x80
                    0x0082                  INTCON2 = 0x82
                    0x0082                  _INTCON2 = 0x82
                    0x0082                  _INTCON2bits = 0x82
                    0x0084                  IFS0 = 0x84
                    0x0084                  _IFS0 = 0x84
                    0x0084                  _IFS0bits = 0x84
                    0x0086                  IFS1 = 0x86
                    0x0086                  _IFS1 = 0x86
                    0x0086                  _IFS1bits = 0x86
                    0x0088                  IFS2 = 0x88
                    0x0088                  _IFS2 = 0x88
                    0x0088                  _IFS2bits = 0x88
                    0x008a                  IFS3 = 0x8a
                    0x008a                  _IFS3 = 0x8a
                    0x008a                  _IFS3bits = 0x8a
                    0x008c                  IFS4 = 0x8c
                    0x008c                  _IFS4 = 0x8c
                    0x008c                  _IFS4bits = 0x8c
                    0x008e                  IFS5 = 0x8e
                    0x008e                  _IFS5 = 0x8e
                    0x008e                  _IFS5bits = 0x8e
                    0x0090                  IFS6 = 0x90
                    0x0090                  _IFS6 = 0x90
                    0x0090                  _IFS6bits = 0x90
                    0x0092                  IFS7 = 0x92
                    0x0092                  _IFS7 = 0x92
                    0x0092                  _IFS7bits = 0x92
                    0x0094                  IEC0 = 0x94
                    0x0094                  _IEC0 = 0x94
                    0x0094                  _IEC0bits = 0x94
                    0x0096                  IEC1 = 0x96
                    0x0096                  _IEC1 = 0x96
                    0x0096                  _IEC1bits = 0x96
                    0x0098                  IEC2 = 0x98
                    0x0098                  _IEC2 = 0x98
                    0x0098                  _IEC2bits = 0x98
                    0x009a                  IEC3 = 0x9a
                    0x009a                  _IEC3 = 0x9a
                    0x009a                  _IEC3bits = 0x9a
                    0x009c                  IEC4 = 0x9c
                    0x009c                  _IEC4 = 0x9c
                    0x009c                  _IEC4bits = 0x9c
                    0x009e                  IEC5 = 0x9e
                    0x009e                  _IEC5 = 0x9e
                    0x009e                  _IEC5bits = 0x9e
                    0x00a0                  IEC6 = 0xa0
                    0x00a0                  _IEC6 = 0xa0
                    0x00a0                  _IEC6bits = 0xa0
                    0x00a2                  IEC7 = 0xa2
                    0x00a2                  _IEC7 = 0xa2
                    0x00a2                  _IEC7bits = 0xa2
                    0x00a4                  IPC0 = 0xa4
                    0x00a4                  _IPC0 = 0xa4
                    0x00a4                  _IPC0bits = 0xa4
                    0x00a6                  IPC1 = 0xa6
                    0x00a6                  _IPC1 = 0xa6
                    0x00a6                  _IPC1bits = 0xa6
                    0x00a8                  IPC2 = 0xa8
                    0x00a8                  _IPC2 = 0xa8
                    0x00a8                  _IPC2bits = 0xa8
                    0x00aa                  IPC3 = 0xaa
                    0x00aa                  _IPC3 = 0xaa
                    0x00aa                  _IPC3bits = 0xaa
                    0x00ac                  IPC4 = 0xac
                    0x00ac                  _IPC4 = 0xac
                    0x00ac                  _IPC4bits = 0xac
                    0x00ae                  IPC5 = 0xae
                    0x00ae                  _IPC5 = 0xae
                    0x00ae                  _IPC5bits = 0xae
                    0x00b0                  IPC6 = 0xb0
                    0x00b0                  _IPC6 = 0xb0
                    0x00b0                  _IPC6bits = 0xb0
                    0x00b2                  IPC7 = 0xb2
                    0x00b2                  _IPC7 = 0xb2
                    0x00b2                  _IPC7bits = 0xb2
                    0x00b4                  IPC8 = 0xb4
                    0x00b4                  _IPC8 = 0xb4
                    0x00b4                  _IPC8bits = 0xb4
                    0x00b6                  IPC9 = 0xb6
                    0x00b6                  _IPC9 = 0xb6
                    0x00b6                  _IPC9bits = 0xb6
                    0x00b8                  IPC10 = 0xb8
                    0x00b8                  _IPC10 = 0xb8
                    0x00b8                  _IPC10bits = 0xb8
                    0x00ba                  IPC11 = 0xba
                    0x00ba                  _IPC11 = 0xba
                    0x00ba                  _IPC11bits = 0xba
                    0x00bc                  IPC12 = 0xbc
                    0x00bc                  _IPC12 = 0xbc
                    0x00bc                  _IPC12bits = 0xbc
                    0x00be                  IPC13 = 0xbe
                    0x00be                  _IPC13 = 0xbe
                    0x00be                  _IPC13bits = 0xbe
                    0x00c0                  IPC14 = 0xc0
                    0x00c0                  _IPC14 = 0xc0
                    0x00c0                  _IPC14bits = 0xc0
                    0x00c2                  IPC15 = 0xc2
                    0x00c2                  _IPC15 = 0xc2
                    0x00c2                  _IPC15bits = 0xc2
                    0x00c4                  IPC16 = 0xc4
                    0x00c4                  _IPC16 = 0xc4
                    0x00c4                  _IPC16bits = 0xc4
                    0x00c8                  IPC18 = 0xc8
                    0x00c8                  _IPC18 = 0xc8
                    0x00c8                  _IPC18bits = 0xc8
                    0x00ca                  IPC19 = 0xca
                    0x00ca                  _IPC19 = 0xca
                    0x00ca                  _IPC19bits = 0xca
                    0x00cc                  IPC20 = 0xcc
                    0x00cc                  _IPC20 = 0xcc
                    0x00cc                  _IPC20bits = 0xcc
                    0x00ce                  IPC21 = 0xce
                    0x00ce                  _IPC21 = 0xce
                    0x00ce                  _IPC21bits = 0xce
                    0x00d0                  IPC22 = 0xd0
                    0x00d0                  _IPC22 = 0xd0
                    0x00d0                  _IPC22bits = 0xd0
                    0x00d2                  IPC23 = 0xd2
                    0x00d2                  _IPC23 = 0xd2
                    0x00d6                  IPC25 = 0xd6
                    0x00d6                  _IPC25 = 0xd6
                    0x00d8                  IPC26 = 0xd8
                    0x00d8                  _IPC26 = 0xd8
                    0x00d8                  _IPC26bits = 0xd8
                    0x00de                  IPC29 = 0xde
                    0x00de                  _IPC29 = 0xde
                    0x00de                  _IPC29bits = 0xde
                    0x00e0                  INTTREG = 0xe0
                    0x00e0                  _INTTREG = 0xe0
                    0x00e0                  _INTTREGbits = 0xe0
                    0x0100                  OSCCON = 0x100
                    0x0100                  _OSCCON = 0x100
                    0x0100                  _OSCCONbits = 0x100
                    0x0100                  OSCCONL = 0x100
                    0x0100                  _OSCCONL = 0x100
                    0x0101                  OSCCONH = 0x101
                    0x0101                  _OSCCONH = 0x101
                    0x0102                  CLKDIV = 0x102
                    0x0102                  _CLKDIV = 0x102
                    0x0102                  _CLKDIVbits = 0x102
                    0x0106                  OSCTUN = 0x106
                    0x0106                  _OSCTUN = 0x106
                    0x0106                  _OSCTUNbits = 0x106
                    0x0108                  RCON = 0x108
                    0x0108                  _RCON = 0x108
                    0x0108                  _RCONbits = 0x108
                    0x010a                  RCON2 = 0x10a
                    0x010a                  _RCON2 = 0x10a
                    0x010a                  _RCON2bits = 0x10a
                    0x010c                  HLVDCON = 0x10c
                    0x010c                  _HLVDCON = 0x10c
                    0x010c                  _HLVDCONbits = 0x10c
                    0x010e                  DSCON = 0x10e
                    0x010e                  _DSCON = 0x10e
                    0x010e                  _DSCONbits = 0x10e
                    0x0110                  DSWAKE = 0x110
                    0x0110                  _DSWAKE = 0x110
                    0x0110                  _DSWAKEbits = 0x110
                    0x0112                  DSGPR0 = 0x112
                    0x0112                  _DSGPR0 = 0x112
                    0x0114                  DSGPR1 = 0x114
                    0x0114                  _DSGPR1 = 0x114
                    0x011e                  ALRMVAL = 0x11e
                    0x011e                  _ALRMVAL = 0x11e
                    0x0120                  ALCFGRPT = 0x120
                    0x0120                  _ALCFGRPT = 0x120
                    0x0120                  _ALCFGRPTbits = 0x120
                    0x0122                  RTCVAL = 0x122
                    0x0122                  _RTCVAL = 0x122
                    0x0124                  RCFGCAL = 0x124
                    0x0124                  _RCFGCAL = 0x124
                    0x0124                  _RCFGCALbits = 0x124
                    0x0126                  RTCPWC = 0x126
                    0x0126                  _RTCPWC = 0x126
                    0x0126                  _RTCPWCbits = 0x126
                    0x0158                  CRCCON1 = 0x158
                    0x0158                  _CRCCON1 = 0x158
                    0x0158                  _CRCCON1bits = 0x158
                    0x015a                  CRCCON2 = 0x15a
                    0x015a                  _CRCCON2 = 0x15a
                    0x015a                  _CRCCON2bits = 0x15a
                    0x015c                  CRCXORL = 0x15c
                    0x015c                  _CRCXORL = 0x15c
                    0x015c                  _CRCXORLbits = 0x15c
                    0x015e                  CRCXORH = 0x15e
                    0x015e                  _CRCXORH = 0x15e
                    0x015e                  _CRCXORHbits = 0x15e
                    0x0160                  CRCDAT = 0x160
                    0x0160                  _CRCDAT = 0x160
                    0x0160                  CRCDATL = 0x160
                    0x0160                  _CRCDATL = 0x160
                    0x0162                  CRCDATH = 0x162
                    0x0162                  _CRCDATH = 0x162
                    0x0164                  CRCWDAT = 0x164
                    0x0164                  _CRCWDAT = 0x164
                    0x0164                  CRCWDATL = 0x164
                    0x0164                  _CRCWDATL = 0x164
                    0x0166                  CRCWDATH = 0x166
                    0x0166                  _CRCWDATH = 0x166
                    0x0168                  REFOCON1 = 0x168
                    0x0168                  _REFOCON1 = 0x168
                    0x0168                  _REFOCON1bits = 0x168
                    0x0168                  REFOCONL = 0x168
                    0x0168                  _REFOCONL = 0x168
                    0x0168                  _REFOCONLbits = 0x168
                    0x016a                  REFOCON2 = 0x16a
                    0x016a                  _REFOCON2 = 0x16a
                    0x016a                  _REFOCON2bits = 0x16a
                    0x016a                  REFOCONH = 0x16a
                    0x016a                  _REFOCONH = 0x16a
                    0x016a                  _REFOCONHbits = 0x16a
                    0x016c                  REFOTRIML = 0x16c
                    0x016c                  _REFOTRIML = 0x16c
                    0x016c                  _REFOTRIMLbits = 0x16c
                    0x0170                  PMD1 = 0x170
                    0x0170                  _PMD1 = 0x170
                    0x0170                  _PMD1bits = 0x170
                    0x0172                  PMD2 = 0x172
                    0x0172                  _PMD2 = 0x172
                    0x0172                  _PMD2bits = 0x172
                    0x0174                  PMD3 = 0x174
                    0x0174                  _PMD3 = 0x174
                    0x0174                  _PMD3bits = 0x174
                    0x0176                  PMD4 = 0x176
                    0x0176                  _PMD4 = 0x176
                    0x0176                  _PMD4bits = 0x176
                    0x0178                  PMD5 = 0x178
                    0x0178                  _PMD5 = 0x178
                    0x017a                  PMD6 = 0x17a
                    0x017a                  _PMD6 = 0x17a
                    0x017a                  _PMD6bits = 0x17a
                    0x017c                  PMD7 = 0x17c
                    0x017c                  _PMD7 = 0x17c
                    0x017c                  _PMD7bits = 0x17c
                    0x017e                  PMD8 = 0x17e
                    0x017e                  _PMD8 = 0x17e
                    0x017e                  _PMD8bits = 0x17e
                    0x0180                  TRISA = 0x180
                    0x0180                  _TRISA = 0x180
                    0x0180                  _TRISAbits = 0x180
                    0x0182                  PORTA = 0x182
                    0x0182                  _PORTA = 0x182
                    0x0182                  _PORTAbits = 0x182
                    0x0184                  LATA = 0x184
                    0x0184                  _LATA = 0x184
                    0x0184                  _LATAbits = 0x184
                    0x0186                  ODCA = 0x186
                    0x0186                  _ODCA = 0x186
                    0x0186                  _ODCAbits = 0x186
                    0x0188                  ANSA = 0x188
                    0x0188                  _ANSA = 0x188
                    0x0188                  _ANSAbits = 0x188
                    0x018a                  TRISB = 0x18a
                    0x018a                  _TRISB = 0x18a
                    0x018a                  _TRISBbits = 0x18a
                    0x018c                  PORTB = 0x18c
                    0x018c                  _PORTB = 0x18c
                    0x018c                  _PORTBbits = 0x18c
                    0x018e                  LATB = 0x18e
                    0x018e                  _LATB = 0x18e
                    0x018e                  _LATBbits = 0x18e
                    0x0190                  ODCB = 0x190
                    0x0190                  _ODCB = 0x190
                    0x0190                  _ODCBbits = 0x190
                    0x0192                  ANSB = 0x192
                    0x0192                  _ANSB = 0x192
                    0x0192                  _ANSBbits = 0x192
                    0x019e                  ANCFG = 0x19e
                    0x019e                  _ANCFG = 0x19e
                    0x019e                  _ANCFGbits = 0x19e
                    0x01a4                  CRYCON1 = 0x1a4
                    0x01a4                  _CRYCON1 = 0x1a4
                    0x01a4                  _CRYCON1bits = 0x1a4
                    0x01a4                  CRYCONL = 0x1a4
                    0x01a4                  _CRYCONL = 0x1a4
                    0x01a4                  _CRYCONLbits = 0x1a4
                    0x01a6                  CRYCON2 = 0x1a6
                    0x01a6                  _CRYCON2 = 0x1a6
                    0x01a6                  _CRYCON2bits = 0x1a6
                    0x01a6                  CRYCONH = 0x1a6
                    0x01a6                  _CRYCONH = 0x1a6
                    0x01a6                  _CRYCONHbits = 0x1a6
                    0x01a8                  CRYSTAT = 0x1a8
                    0x01a8                  _CRYSTAT = 0x1a8
                    0x01a8                  _CRYSTATbits = 0x1a8
                    0x01ac                  CRYOTP = 0x1ac
                    0x01ac                  _CRYOTP = 0x1ac
                    0x01ac                  _CRYOTPbits = 0x1ac
                    0x01b0                  CRYTXTA = 0x1b0
                    0x01b0                  _CRYTXTA = 0x1b0
                    0x01b0                  CRYTXTA0 = 0x1b0
                    0x01b0                  _CRYTXTA0 = 0x1b0
                    0x01b2                  CRYTXTA1 = 0x1b2
                    0x01b2                  _CRYTXTA1 = 0x1b2
                    0x01b4                  CRYTXTA2 = 0x1b4
                    0x01b4                  _CRYTXTA2 = 0x1b4
                    0x01b6                  CRYTXTA3 = 0x1b6
                    0x01b6                  _CRYTXTA3 = 0x1b6
                    0x01b8                  CRYTXTA4 = 0x1b8
                    0x01b8                  _CRYTXTA4 = 0x1b8
                    0x01ba                  CRYTXTA5 = 0x1ba
                    0x01ba                  _CRYTXTA5 = 0x1ba
                    0x01bc                  CRYTXTA6 = 0x1bc
                    0x01bc                  _CRYTXTA6 = 0x1bc
                    0x01be                  CRYTXTA7 = 0x1be
                    0x01be                  _CRYTXTA7 = 0x1be
                    0x01c0                  CRYKEY = 0x1c0
                    0x01c0                  _CRYKEY = 0x1c0
                    0x01c0                  CRYKEY0 = 0x1c0
                    0x01c0                  _CRYKEY0 = 0x1c0
                    0x01c2                  CRYKEY1 = 0x1c2
                    0x01c2                  _CRYKEY1 = 0x1c2
                    0x01c4                  CRYKEY2 = 0x1c4
                    0x01c4                  _CRYKEY2 = 0x1c4
                    0x01c6                  CRYKEY3 = 0x1c6
                    0x01c6                  _CRYKEY3 = 0x1c6
                    0x01c8                  CRYKEY4 = 0x1c8
                    0x01c8                  _CRYKEY4 = 0x1c8
                    0x01ca                  CRYKEY5 = 0x1ca
                    0x01ca                  _CRYKEY5 = 0x1ca
                    0x01cc                  CRYKEY6 = 0x1cc
                    0x01cc                  _CRYKEY6 = 0x1cc
                    0x01ce                  CRYKEY7 = 0x1ce
                    0x01ce                  _CRYKEY7 = 0x1ce
                    0x01d0                  CRYKEY8 = 0x1d0
                    0x01d0                  _CRYKEY8 = 0x1d0
                    0x01d2                  CRYKEY9 = 0x1d2
                    0x01d2                  _CRYKEY9 = 0x1d2
                    0x01d4                  CRYKEY10 = 0x1d4
                    0x01d4                  _CRYKEY10 = 0x1d4
                    0x01d6                  CRYKEY11 = 0x1d6
                    0x01d6                  _CRYKEY11 = 0x1d6
                    0x01d8                  CRYKEY12 = 0x1d8
                    0x01d8                  _CRYKEY12 = 0x1d8
                    0x01da                  CRYKEY13 = 0x1da
                    0x01da                  _CRYKEY13 = 0x1da
                    0x01dc                  CRYKEY14 = 0x1dc
                    0x01dc                  _CRYKEY14 = 0x1dc
                    0x01de                  CRYKEY15 = 0x1de
                    0x01de                  _CRYKEY15 = 0x1de
                    0x01e0                  CRYTXTB = 0x1e0
                    0x01e0                  _CRYTXTB = 0x1e0
                    0x01e0                  CRYTXTB0 = 0x1e0
                    0x01e0                  _CRYTXTB0 = 0x1e0
                    0x01e2                  CRYTXTB1 = 0x1e2
                    0x01e2                  _CRYTXTB1 = 0x1e2
                    0x01e4                  CRYTXTB2 = 0x1e4
                    0x01e4                  _CRYTXTB2 = 0x1e4
                    0x01e6                  CRYTXTB3 = 0x1e6
                    0x01e6                  _CRYTXTB3 = 0x1e6
                    0x01e8                  CRYTXTB4 = 0x1e8
                    0x01e8                  _CRYTXTB4 = 0x1e8
                    0x01ea                  CRYTXTB5 = 0x1ea
                    0x01ea                  _CRYTXTB5 = 0x1ea
                    0x01ec                  CRYTXTB6 = 0x1ec
                    0x01ec                  _CRYTXTB6 = 0x1ec
                    0x01ee                  CRYTXTB7 = 0x1ee
                    0x01ee                  _CRYTXTB7 = 0x1ee
                    0x01f0                  CRYTXTC = 0x1f0
                    0x01f0                  _CRYTXTC = 0x1f0
                    0x01f0                  CRYTXTC0 = 0x1f0
                    0x01f0                  _CRYTXTC0 = 0x1f0
                    0x01f2                  CRYTXTC1 = 0x1f2
                    0x01f2                  _CRYTXTC1 = 0x1f2
                    0x01f4                  CRYTXTC2 = 0x1f4
                    0x01f4                  _CRYTXTC2 = 0x1f4
                    0x01f6                  CRYTXTC3 = 0x1f6
                    0x01f6                  _CRYTXTC3 = 0x1f6
                    0x01f8                  CRYTXTC4 = 0x1f8
                    0x01f8                  _CRYTXTC4 = 0x1f8
                    0x01fa                  CRYTXTC5 = 0x1fa
                    0x01fa                  _CRYTXTC5 = 0x1fa
                    0x01fc                  CRYTXTC6 = 0x1fc
                    0x01fc                  _CRYTXTC6 = 0x1fc
                    0x01fe                  CRYTXTC7 = 0x1fe
                    0x01fe                  _CRYTXTC7 = 0x1fe
                    0x0200                  ADC1BUF0 = 0x200
                    0x0200                  _ADC1BUF0 = 0x200
                    0x0202                  ADC1BUF1 = 0x202
                    0x0202                  _ADC1BUF1 = 0x202
                    0x0204                  ADC1BUF2 = 0x204
                    0x0204                  _ADC1BUF2 = 0x204
                    0x0206                  ADC1BUF3 = 0x206
                    0x0206                  _ADC1BUF3 = 0x206
                    0x0208                  ADC1BUF4 = 0x208
                    0x0208                  _ADC1BUF4 = 0x208
                    0x020a                  ADC1BUF5 = 0x20a
                    0x020a                  _ADC1BUF5 = 0x20a
                    0x020c                  ADC1BUF6 = 0x20c
                    0x020c                  _ADC1BUF6 = 0x20c
                    0x020e                  ADC1BUF7 = 0x20e
                    0x020e                  _ADC1BUF7 = 0x20e
                    0x0210                  ADC1BUF8 = 0x210
                    0x0210                  _ADC1BUF8 = 0x210
                    0x0212                  ADC1BUF9 = 0x212
                    0x0212                  _ADC1BUF9 = 0x212
                    0x0214                  ADC1BUF10 = 0x214
                    0x0214                  _ADC1BUF10 = 0x214
                    0x0216                  ADC1BUF11 = 0x216
                    0x0216                  _ADC1BUF11 = 0x216
                    0x0218                  ADC1BUF12 = 0x218
                    0x0218                  _ADC1BUF12 = 0x218
                    0x021a                  ADC1BUF13 = 0x21a
                    0x021a                  _ADC1BUF13 = 0x21a
                    0x021c                  ADC1BUF14 = 0x21c
                    0x021c                  _ADC1BUF14 = 0x21c
                    0x021e                  ADC1BUF15 = 0x21e
                    0x021e                  _ADC1BUF15 = 0x21e
                    0x0220                  AD1CON1 = 0x220
                    0x0220                  _AD1CON1 = 0x220
                    0x0220                  _AD1CON1bits = 0x220
                    0x0222                  AD1CON2 = 0x222
                    0x0222                  _AD1CON2 = 0x222
                    0x0222                  _AD1CON2bits = 0x222
                    0x0224                  AD1CON3 = 0x224
                    0x0224                  _AD1CON3 = 0x224
                    0x0224                  _AD1CON3bits = 0x224
                    0x0228                  AD1CHS = 0x228
                    0x0228                  _AD1CHS = 0x228
                    0x0228                  _AD1CHSbits = 0x228
                    0x0228                  AD1CHS0 = 0x228
                    0x0228                  _AD1CHS0 = 0x228
                    0x0228                  _AD1CHS0bits = 0x228
                    0x022a                  AD1CSSH = 0x22a
                    0x022a                  _AD1CSSH = 0x22a
                    0x022a                  _AD1CSSHbits = 0x22a
                    0x022c                  AD1CSSL = 0x22c
                    0x022c                  _AD1CSSL = 0x22c
                    0x022c                  _AD1CSSLbits = 0x22c
                    0x022e                  AD1CON4 = 0x22e
                    0x022e                  _AD1CON4 = 0x22e
                    0x022e                  _AD1CON4bits = 0x22e
                    0x0230                  AD1CON5 = 0x230
                    0x0230                  _AD1CON5 = 0x230
                    0x0230                  _AD1CON5bits = 0x230
                    0x0234                  AD1CHITL = 0x234
                    0x0234                  _AD1CHITL = 0x234
                    0x0234                  _AD1CHITLbits = 0x234
                    0x0238                  AD1CTMENL = 0x238
                    0x0238                  _AD1CTMENL = 0x238
                    0x0238                  _AD1CTMENLbits = 0x238
                    0x023a                  AD1RESDMA = 0x23a
                    0x023a                  _AD1RESDMA = 0x23a
                    0x023c                  CTMUCON1 = 0x23c
                    0x023c                  _CTMUCON1 = 0x23c
                    0x023c                  _CTMUCON1bits = 0x23c
                    0x023e                  CTMUCON2 = 0x23e
                    0x023e                  _CTMUCON2 = 0x23e
                    0x023e                  _CTMUCON2bits = 0x23e
                    0x0240                  CTMUICON = 0x240
                    0x0240                  _CTMUICON = 0x240
                    0x0240                  _CTMUICONbits = 0x240
                    0x0242                  CMSTAT = 0x242
                    0x0242                  _CMSTAT = 0x242
                    0x0242                  _CMSTATbits = 0x242
                    0x0244                  CVRCON = 0x244
                    0x0244                  _CVRCON = 0x244
                    0x0244                  _CVRCONbits = 0x244
                    0x0246                  CM1CON = 0x246
                    0x0246                  _CM1CON = 0x246
                    0x0246                  _CM1CONbits = 0x246
                    0x0248                  CM2CON = 0x248
                    0x0248                  _CM2CON = 0x248
                    0x0248                  _CM2CONbits = 0x248
                    0x024a                  CM3CON = 0x24a
                    0x024a                  _CM3CON = 0x24a
                    0x024a                  _CM3CONbits = 0x24a
                    0x024c                  TMR1 = 0x24c
                    0x024c                  _TMR1 = 0x24c
                    0x024e                  PR1 = 0x24e
                    0x024e                  _PR1 = 0x24e
                    0x0250                  T1CON = 0x250
                    0x0250                  _T1CON = 0x250
                    0x0250                  _T1CONbits = 0x250
                    0x0252                  TMR2 = 0x252
                    0x0252                  _TMR2 = 0x252
                    0x0254                  TMR3HLD = 0x254
                    0x0254                  _TMR3HLD = 0x254
                    0x0256                  TMR3 = 0x256
                    0x0256                  _TMR3 = 0x256
                    0x0258                  PR2 = 0x258
                    0x0258                  _PR2 = 0x258
                    0x025a                  PR3 = 0x25a
                    0x025a                  _PR3 = 0x25a
                    0x025c                  T2CON = 0x25c
                    0x025c                  _T2CON = 0x25c
                    0x025c                  _T2CONbits = 0x25c
                    0x025e                  T3CON = 0x25e
                    0x025e                  _T3CON = 0x25e
                    0x025e                  _T3CONbits = 0x25e
                    0x0260                  TMR4 = 0x260
                    0x0260                  _TMR4 = 0x260
                    0x0262                  TMR5HLD = 0x262
                    0x0262                  _TMR5HLD = 0x262
                    0x0264                  TMR5 = 0x264
                    0x0264                  _TMR5 = 0x264
                    0x0266                  PR4 = 0x266
                    0x0266                  _PR4 = 0x266
                    0x0268                  PR5 = 0x268
                    0x0268                  _PR5 = 0x268
                    0x026a                  T4CON = 0x26a
                    0x026a                  _T4CON = 0x26a
                    0x026a                  _T4CONbits = 0x26a
                    0x026c                  T5CON = 0x26c
                    0x026c                  _T5CON = 0x26c
                    0x026c                  _T5CONbits = 0x26c
                    0x026e                  OC1CON1 = 0x26e
                    0x026e                  _OC1CON1 = 0x26e
                    0x026e                  _OC1CON1bits = 0x26e
                    0x0270                  OC1CON2 = 0x270
                    0x0270                  _OC1CON2 = 0x270
                    0x0270                  _OC1CON2bits = 0x270
                    0x0272                  OC1RS = 0x272
                    0x0272                  _OC1RS = 0x272
                    0x0274                  OC1R = 0x274
                    0x0274                  _OC1R = 0x274
                    0x0276                  OC1TMR = 0x276
                    0x0276                  _OC1TMR = 0x276
                    0x0278                  OC2CON1 = 0x278
                    0x0278                  _OC2CON1 = 0x278
                    0x0278                  _OC2CON1bits = 0x278
                    0x027a                  OC2CON2 = 0x27a
                    0x027a                  _OC2CON2 = 0x27a
                    0x027a                  _OC2CON2bits = 0x27a
                    0x027c                  OC2RS = 0x27c
                    0x027c                  _OC2RS = 0x27c
                    0x027e                  OC2R = 0x27e
                    0x027e                  _OC2R = 0x27e
                    0x0280                  OC2TMR = 0x280
                    0x0280                  _OC2TMR = 0x280
                    0x0282                  OC3CON1 = 0x282
                    0x0282                  _OC3CON1 = 0x282
                    0x0282                  _OC3CON1bits = 0x282
                    0x0284                  OC3CON2 = 0x284
                    0x0284                  _OC3CON2 = 0x284
                    0x0284                  _OC3CON2bits = 0x284
                    0x0286                  OC3RS = 0x286
                    0x0286                  _OC3RS = 0x286
                    0x0288                  OC3R = 0x288
                    0x0288                  _OC3R = 0x288
                    0x028a                  OC3TMR = 0x28a
                    0x028a                  _OC3TMR = 0x28a
                    0x028c                  OC4CON1 = 0x28c
                    0x028c                  _OC4CON1 = 0x28c
                    0x028c                  _OC4CON1bits = 0x28c
                    0x028e                  OC4CON2 = 0x28e
                    0x028e                  _OC4CON2 = 0x28e
                    0x028e                  _OC4CON2bits = 0x28e
                    0x0290                  OC4RS = 0x290
                    0x0290                  _OC4RS = 0x290
                    0x0292                  OC4R = 0x292
                    0x0292                  _OC4R = 0x292
                    0x0294                  OC4TMR = 0x294
                    0x0294                  _OC4TMR = 0x294
                    0x0296                  OC5CON1 = 0x296
                    0x0296                  _OC5CON1 = 0x296
                    0x0296                  _OC5CON1bits = 0x296
                    0x0298                  OC5CON2 = 0x298
                    0x0298                  _OC5CON2 = 0x298
                    0x0298                  _OC5CON2bits = 0x298
                    0x029a                  OC5RS = 0x29a
                    0x029a                  _OC5RS = 0x29a
                    0x029c                  OC5R = 0x29c
                    0x029c                  _OC5R = 0x29c
                    0x029e                  OC5TMR = 0x29e
                    0x029e                  _OC5TMR = 0x29e
                    0x02a0                  OC6CON1 = 0x2a0
                    0x02a0                  _OC6CON1 = 0x2a0
                    0x02a0                  _OC6CON1bits = 0x2a0
                    0x02a2                  OC6CON2 = 0x2a2
                    0x02a2                  _OC6CON2 = 0x2a2
                    0x02a2                  _OC6CON2bits = 0x2a2
                    0x02a4                  OC6RS = 0x2a4
                    0x02a4                  _OC6RS = 0x2a4
                    0x02a6                  OC6R = 0x2a6
                    0x02a6                  _OC6R = 0x2a6
                    0x02a8                  OC6TMR = 0x2a8
                    0x02a8                  _OC6TMR = 0x2a8
                    0x02aa                  IC1CON1 = 0x2aa
                    0x02aa                  _IC1CON1 = 0x2aa
                    0x02aa                  _IC1CON1bits = 0x2aa
                    0x02ac                  IC1CON2 = 0x2ac
                    0x02ac                  _IC1CON2 = 0x2ac
                    0x02ac                  _IC1CON2bits = 0x2ac
                    0x02ae                  IC1BUF = 0x2ae
                    0x02ae                  _IC1BUF = 0x2ae
                    0x02b0                  IC1TMR = 0x2b0
                    0x02b0                  _IC1TMR = 0x2b0
                    0x02b2                  IC2CON1 = 0x2b2
                    0x02b2                  _IC2CON1 = 0x2b2
                    0x02b2                  _IC2CON1bits = 0x2b2
                    0x02b4                  IC2CON2 = 0x2b4
                    0x02b4                  _IC2CON2 = 0x2b4
                    0x02b4                  _IC2CON2bits = 0x2b4
                    0x02b6                  IC2BUF = 0x2b6
                    0x02b6                  _IC2BUF = 0x2b6
                    0x02b8                  IC2TMR = 0x2b8
                    0x02b8                  _IC2TMR = 0x2b8
                    0x02ba                  IC3CON1 = 0x2ba
                    0x02ba                  _IC3CON1 = 0x2ba
                    0x02ba                  _IC3CON1bits = 0x2ba
                    0x02bc                  IC3CON2 = 0x2bc
                    0x02bc                  _IC3CON2 = 0x2bc
                    0x02bc                  _IC3CON2bits = 0x2bc
                    0x02be                  IC3BUF = 0x2be
                    0x02be                  _IC3BUF = 0x2be
                    0x02c0                  IC3TMR = 0x2c0
                    0x02c0                  _IC3TMR = 0x2c0
                    0x02c2                  IC4CON1 = 0x2c2
                    0x02c2                  _IC4CON1 = 0x2c2
                    0x02c2                  _IC4CON1bits = 0x2c2
                    0x02c4                  IC4CON2 = 0x2c4
                    0x02c4                  _IC4CON2 = 0x2c4
                    0x02c4                  _IC4CON2bits = 0x2c4
                    0x02c6                  IC4BUF = 0x2c6
                    0x02c6                  _IC4BUF = 0x2c6
                    0x02c8                  IC4TMR = 0x2c8
                    0x02c8                  _IC4TMR = 0x2c8
                    0x02ca                  IC5CON1 = 0x2ca
                    0x02ca                  _IC5CON1 = 0x2ca
                    0x02ca                  _IC5CON1bits = 0x2ca
                    0x02cc                  IC5CON2 = 0x2cc
                    0x02cc                  _IC5CON2 = 0x2cc
                    0x02cc                  _IC5CON2bits = 0x2cc
                    0x02ce                  IC5BUF = 0x2ce
                    0x02ce                  _IC5BUF = 0x2ce
                    0x02d0                  IC5TMR = 0x2d0
                    0x02d0                  _IC5TMR = 0x2d0
                    0x02d2                  IC6CON1 = 0x2d2
                    0x02d2                  _IC6CON1 = 0x2d2
                    0x02d2                  _IC6CON1bits = 0x2d2
                    0x02d4                  IC6CON2 = 0x2d4
                    0x02d4                  _IC6CON2 = 0x2d4
                    0x02d4                  _IC6CON2bits = 0x2d4
                    0x02d6                  IC6BUF = 0x2d6
                    0x02d6                  _IC6BUF = 0x2d6
                    0x02d8                  IC6TMR = 0x2d8
                    0x02d8                  _IC6TMR = 0x2d8
                    0x02da                  I2C1RCV = 0x2da
                    0x02da                  _I2C1RCV = 0x2da
                    0x02da                  _I2C1RCVbits = 0x2da
                    0x02dc                  I2C1TRN = 0x2dc
                    0x02dc                  _I2C1TRN = 0x2dc
                    0x02dc                  _I2C1TRNbits = 0x2dc
                    0x02de                  I2C1BRG = 0x2de
                    0x02de                  _I2C1BRG = 0x2de
                    0x02e0                  I2C1CON1 = 0x2e0
                    0x02e0                  _I2C1CON1 = 0x2e0
                    0x02e0                  _I2C1CON1bits = 0x2e0
                    0x02e0                  I2C1CONL = 0x2e0
                    0x02e0                  _I2C1CONL = 0x2e0
                    0x02e0                  _I2C1CONLbits = 0x2e0
                    0x02e2                  I2C1CON2 = 0x2e2
                    0x02e2                  _I2C1CON2 = 0x2e2
                    0x02e2                  _I2C1CON2bits = 0x2e2
                    0x02e2                  I2C1CONH = 0x2e2
                    0x02e2                  _I2C1CONH = 0x2e2
                    0x02e2                  _I2C1CONHbits = 0x2e2
                    0x02e4                  I2C1STAT = 0x2e4
                    0x02e4                  _I2C1STAT = 0x2e4
                    0x02e4                  _I2C1STATbits = 0x2e4
                    0x02e6                  I2C1ADD = 0x2e6
                    0x02e6                  _I2C1ADD = 0x2e6
                    0x02e6                  _I2C1ADDbits = 0x2e6
                    0x02e8                  I2C1MSK = 0x2e8
                    0x02e8                  _I2C1MSK = 0x2e8
                    0x02e8                  _I2C1MSKbits = 0x2e8
                    0x02ea                  I2C2RCV = 0x2ea
                    0x02ea                  _I2C2RCV = 0x2ea
                    0x02ea                  _I2C2RCVbits = 0x2ea
                    0x02ec                  I2C2TRN = 0x2ec
                    0x02ec                  _I2C2TRN = 0x2ec
                    0x02ec                  _I2C2TRNbits = 0x2ec
                    0x02ee                  I2C2BRG = 0x2ee
                    0x02ee                  _I2C2BRG = 0x2ee
                    0x02f0                  I2C2CONL = 0x2f0
                    0x02f0                  _I2C2CONL = 0x2f0
                    0x02f0                  _I2C2CONLbits = 0x2f0
                    0x02f2                  I2C2CONH = 0x2f2
                    0x02f2                  _I2C2CONH = 0x2f2
                    0x02f2                  _I2C2CONHbits = 0x2f2
                    0x02f4                  I2C2STAT = 0x2f4
                    0x02f4                  _I2C2STAT = 0x2f4
                    0x02f4                  _I2C2STATbits = 0x2f4
                    0x02f6                  I2C2ADD = 0x2f6
                    0x02f6                  _I2C2ADD = 0x2f6
                    0x02f6                  _I2C2ADDbits = 0x2f6
                    0x02f8                  I2C2MSK = 0x2f8
                    0x02f8                  _I2C2MSK = 0x2f8
                    0x02f8                  _I2C2MSKbits = 0x2f8
                    0x02fa                  MDCON = 0x2fa
                    0x02fa                  _MDCON = 0x2fa
                    0x02fa                  _MDCONbits = 0x2fa
                    0x02fc                  MDSRC = 0x2fc
                    0x02fc                  _MDSRC = 0x2fc
                    0x02fc                  _MDSRCbits = 0x2fc
                    0x02fe                  MDCAR = 0x2fe
                    0x02fe                  _MDCAR = 0x2fe
                    0x02fe                  _MDCARbits = 0x2fe
                    0x0300                  SPI1CON1 = 0x300
                    0x0300                  _SPI1CON1 = 0x300
                    0x0300                  _SPI1CON1bits = 0x300
                    0x0300                  SPI1CON1L = 0x300
                    0x0300                  _SPI1CON1L = 0x300
                    0x0300                  _SPI1CON1Lbits = 0x300
                    0x0302                  SPI1CON1H = 0x302
                    0x0302                  _SPI1CON1H = 0x302
                    0x0302                  _SPI1CON1Hbits = 0x302
                    0x0302                  SPI1CON2 = 0x302
                    0x0302                  _SPI1CON2 = 0x302
                    0x0302                  _SPI1CON2bits = 0x302
                    0x0304                  SPI1CON2L = 0x304
                    0x0304                  _SPI1CON2L = 0x304
                    0x0304                  _SPI1CON2Lbits = 0x304
                    0x0304                  SPI1CON3 = 0x304
                    0x0304                  _SPI1CON3 = 0x304
                    0x0304                  _SPI1CON3bits = 0x304
                    0x0306                  SPI1CON2H = 0x306
                    0x0306                  _SPI1CON2H = 0x306
                    0x0306                  SPI1CON4 = 0x306
                    0x0306                  _SPI1CON4 = 0x306
                    0x0308                  SPI1STATL = 0x308
                    0x0308                  _SPI1STATL = 0x308
                    0x0308                  _SPI1STATLbits = 0x308
                    0x030a                  SPI1STATH = 0x30a
                    0x030a                  _SPI1STATH = 0x30a
                    0x030a                  _SPI1STATHbits = 0x30a
                    0x030c                  SPI1BUFL = 0x30c
                    0x030c                  _SPI1BUFL = 0x30c
                    0x030c                  _SPI1BUFLbits = 0x30c
                    0x030e                  SPI1BUFH = 0x30e
                    0x030e                  _SPI1BUFH = 0x30e
                    0x030e                  _SPI1BUFHbits = 0x30e
                    0x0310                  SPI1BRGL = 0x310
                    0x0310                  _SPI1BRGL = 0x310
                    0x0310                  _SPI1BRGLbits = 0x310
                    0x0312                  SPI1BRGH = 0x312
                    0x0312                  _SPI1BRGH = 0x312
                    0x0314                  SPI1IMSK1 = 0x314
                    0x0314                  _SPI1IMSK1 = 0x314
                    0x0314                  _SPI1IMSK1bits = 0x314
                    0x0314                  SPI1IMSKL = 0x314
                    0x0314                  _SPI1IMSKL = 0x314
                    0x0314                  _SPI1IMSKLbits = 0x314
                    0x0316                  SPI1IMSK2 = 0x316
                    0x0316                  _SPI1IMSK2 = 0x316
                    0x0316                  _SPI1IMSK2bits = 0x316
                    0x0316                  SPI1IMSKH = 0x316
                    0x0316                  _SPI1IMSKH = 0x316
                    0x0316                  _SPI1IMSKHbits = 0x316
                    0x0318                  SPI1URDTL = 0x318
                    0x0318                  _SPI1URDTL = 0x318
                    0x0318                  _SPI1URDTLbits = 0x318
                    0x031a                  SPI1URDTH = 0x31a
                    0x031a                  _SPI1URDTH = 0x31a
                    0x031a                  _SPI1URDTHbits = 0x31a
                    0x031c                  SPI2CON1L = 0x31c
                    0x031c                  _SPI2CON1L = 0x31c
                    0x031c                  _SPI2CON1Lbits = 0x31c
                    0x031e                  SPI2CON1H = 0x31e
                    0x031e                  _SPI2CON1H = 0x31e
                    0x031e                  _SPI2CON1Hbits = 0x31e
                    0x0320                  SPI2CON2L = 0x320
                    0x0320                  _SPI2CON2L = 0x320
                    0x0320                  _SPI2CON2Lbits = 0x320
                    0x0322                  SPI2CON2H = 0x322
                    0x0322                  _SPI2CON2H = 0x322
                    0x0324                  SPI2STATL = 0x324
                    0x0324                  _SPI2STATL = 0x324
                    0x0324                  _SPI2STATLbits = 0x324
                    0x0326                  SPI2STATH = 0x326
                    0x0326                  _SPI2STATH = 0x326
                    0x0326                  _SPI2STATHbits = 0x326
                    0x0328                  SPI2BUFL = 0x328
                    0x0328                  _SPI2BUFL = 0x328
                    0x0328                  _SPI2BUFLbits = 0x328
                    0x032a                  SPI2BUFH = 0x32a
                    0x032a                  _SPI2BUFH = 0x32a
                    0x032a                  _SPI2BUFHbits = 0x32a
                    0x032c                  SPI2BRGL = 0x32c
                    0x032c                  _SPI2BRGL = 0x32c
                    0x032c                  _SPI2BRGLbits = 0x32c
                    0x032e                  SPI2BRGH = 0x32e
                    0x032e                  _SPI2BRGH = 0x32e
                    0x0330                  SPI2IMSKL = 0x330
                    0x0330                  _SPI2IMSKL = 0x330
                    0x0330                  _SPI2IMSKLbits = 0x330
                    0x0332                  SPI2IMSKH = 0x332
                    0x0332                  _SPI2IMSKH = 0x332
                    0x0332                  _SPI2IMSKHbits = 0x332
                    0x0334                  SPI2URDTL = 0x334
                    0x0334                  _SPI2URDTL = 0x334
                    0x0334                  _SPI2URDTLbits = 0x334
                    0x0336                  SPI2URDTH = 0x336
                    0x0336                  _SPI2URDTH = 0x336
                    0x0336                  _SPI2URDTHbits = 0x336
                    0x0338                  SPI3CON1L = 0x338
                    0x0338                  _SPI3CON1L = 0x338
                    0x0338                  _SPI3CON1Lbits = 0x338
                    0x033a                  SPI3CON1H = 0x33a
                    0x033a                  _SPI3CON1H = 0x33a
                    0x033a                  _SPI3CON1Hbits = 0x33a
                    0x033c                  SPI3CON2L = 0x33c
                    0x033c                  _SPI3CON2L = 0x33c
                    0x033c                  _SPI3CON2Lbits = 0x33c
                    0x033e                  SPI3CON2H = 0x33e
                    0x033e                  _SPI3CON2H = 0x33e
                    0x0340                  SPI3STATL = 0x340
                    0x0340                  _SPI3STATL = 0x340
                    0x0340                  _SPI3STATLbits = 0x340
                    0x0342                  SPI3STATH = 0x342
                    0x0342                  _SPI3STATH = 0x342
                    0x0342                  _SPI3STATHbits = 0x342
                    0x0344                  SPI3BUFL = 0x344
                    0x0344                  _SPI3BUFL = 0x344
                    0x0344                  _SPI3BUFLbits = 0x344
                    0x0346                  SPI3BUFH = 0x346
                    0x0346                  _SPI3BUFH = 0x346
                    0x0346                  _SPI3BUFHbits = 0x346
                    0x0348                  SPI3BRGL = 0x348
                    0x0348                  _SPI3BRGL = 0x348
                    0x0348                  _SPI3BRGLbits = 0x348
                    0x034a                  SPI3BRGH = 0x34a
                    0x034a                  _SPI3BRGH = 0x34a
                    0x034c                  SPI3IMSKL = 0x34c
                    0x034c                  _SPI3IMSKL = 0x34c
                    0x034c                  _SPI3IMSKLbits = 0x34c
                    0x034e                  SPI3IMSKH = 0x34e
                    0x034e                  _SPI3IMSKH = 0x34e
                    0x034e                  _SPI3IMSKHbits = 0x34e
                    0x0350                  SPI3URDTL = 0x350
                    0x0350                  _SPI3URDTL = 0x350
                    0x0350                  _SPI3URDTLbits = 0x350
                    0x0352                  SPI3URDTH = 0x352
                    0x0352                  _SPI3URDTH = 0x352
                    0x0352                  _SPI3URDTHbits = 0x352
                    0x038c                  RPINR0 = 0x38c
                    0x038c                  _RPINR0 = 0x38c
                    0x038c                  _RPINR0bits = 0x38c
                    0x038e                  RPINR1 = 0x38e
                    0x038e                  _RPINR1 = 0x38e
                    0x038e                  _RPINR1bits = 0x38e
                    0x0390                  RPINR2 = 0x390
                    0x0390                  _RPINR2 = 0x390
                    0x0390                  _RPINR2bits = 0x390
                    0x039a                  RPINR7 = 0x39a
                    0x039a                  _RPINR7 = 0x39a
                    0x039a                  _RPINR7bits = 0x39a
                    0x039c                  RPINR8 = 0x39c
                    0x039c                  _RPINR8 = 0x39c
                    0x039c                  _RPINR8bits = 0x39c
                    0x039e                  RPINR9 = 0x39e
                    0x039e                  _RPINR9 = 0x39e
                    0x039e                  _RPINR9bits = 0x39e
                    0x03a2                  RPINR11 = 0x3a2
                    0x03a2                  _RPINR11 = 0x3a2
                    0x03a2                  _RPINR11bits = 0x3a2
                    0x03ae                  RPINR17 = 0x3ae
                    0x03ae                  _RPINR17 = 0x3ae
                    0x03ae                  _RPINR17bits = 0x3ae
                    0x03b0                  RPINR18 = 0x3b0
                    0x03b0                  _RPINR18 = 0x3b0
                    0x03b0                  _RPINR18bits = 0x3b0
                    0x03b2                  RPINR19 = 0x3b2
                    0x03b2                  _RPINR19 = 0x3b2
                    0x03b2                  _RPINR19bits = 0x3b2
                    0x03b4                  RPINR20 = 0x3b4
                    0x03b4                  _RPINR20 = 0x3b4
                    0x03b4                  _RPINR20bits = 0x3b4
                    0x03b6                  RPINR21 = 0x3b6
                    0x03b6                  _RPINR21 = 0x3b6
                    0x03b6                  _RPINR21bits = 0x3b6
                    0x03b8                  RPINR22 = 0x3b8
                    0x03b8                  _RPINR22 = 0x3b8
                    0x03b8                  _RPINR22bits = 0x3b8
                    0x03ba                  RPINR23 = 0x3ba
                    0x03ba                  _RPINR23 = 0x3ba
                    0x03ba                  _RPINR23bits = 0x3ba
                    0x03c2                  RPINR27 = 0x3c2
                    0x03c2                  _RPINR27 = 0x3c2
                    0x03c2                  _RPINR27bits = 0x3c2
                    0x03c4                  RPINR28 = 0x3c4
                    0x03c4                  _RPINR28 = 0x3c4
                    0x03c4                  _RPINR28bits = 0x3c4
                    0x03c6                  RPINR29 = 0x3c6
                    0x03c6                  _RPINR29 = 0x3c6
                    0x03c6                  _RPINR29bits = 0x3c6
                    0x03c8                  RPINR30 = 0x3c8
                    0x03c8                  _RPINR30 = 0x3c8
                    0x03c8                  _RPINR30bits = 0x3c8
                    0x03ca                  RPINR31 = 0x3ca
                    0x03ca                  _RPINR31 = 0x3ca
                    0x03ca                  _RPINR31bits = 0x3ca
                    0x03d6                  RPOR0 = 0x3d6
                    0x03d6                  _RPOR0 = 0x3d6
                    0x03d6                  _RPOR0bits = 0x3d6
                    0x03d8                  RPOR1 = 0x3d8
                    0x03d8                  _RPOR1 = 0x3d8
                    0x03d8                  _RPOR1bits = 0x3d8
                    0x03da                  RPOR2 = 0x3da
                    0x03da                  _RPOR2 = 0x3da
                    0x03da                  _RPOR2bits = 0x3da
                    0x03dc                  RPOR3 = 0x3dc
                    0x03dc                  _RPOR3 = 0x3dc
                    0x03dc                  _RPOR3bits = 0x3dc
                    0x03de                  RPOR4 = 0x3de
                    0x03de                  _RPOR4 = 0x3de
                    0x03de                  _RPOR4bits = 0x3de
                    0x03e0                  RPOR5 = 0x3e0
                    0x03e0                  _RPOR5 = 0x3e0
                    0x03e0                  _RPOR5bits = 0x3e0
                    0x03e2                  RPOR6 = 0x3e2
                    0x03e2                  _RPOR6 = 0x3e2
                    0x03e2                  _RPOR6bits = 0x3e2
                    0x03e4                  RPOR7 = 0x3e4
                    0x03e4                  _RPOR7 = 0x3e4
                    0x03e4                  _RPOR7bits = 0x3e4
                    0x0400                  U1OTGIR = 0x400
                    0x0400                  _U1OTGIR = 0x400
                    0x0400                  _U1OTGIRbits = 0x400
                    0x0402                  U1OTGIE = 0x402
                    0x0402                  _U1OTGIE = 0x402
                    0x0402                  _U1OTGIEbits = 0x402
                    0x0404                  U1OTGSTAT = 0x404
                    0x0404                  _U1OTGSTAT = 0x404
                    0x0404                  _U1OTGSTATbits = 0x404
                    0x0406                  U1OTGCON = 0x406
                    0x0406                  _U1OTGCON = 0x406
                    0x0406                  _U1OTGCONbits = 0x406
                    0x0408                  U1PWRC = 0x408
                    0x0408                  _U1PWRC = 0x408
                    0x0408                  _U1PWRCbits = 0x408
                    0x040a                  U1IR = 0x40a
                    0x040a                  _U1IR = 0x40a
                    0x040a                  _U1IRbits = 0x40a
                    0x040c                  U1IE = 0x40c
                    0x040c                  _U1IE = 0x40c
                    0x040c                  _U1IEbits = 0x40c
                    0x040e                  U1EIR = 0x40e
                    0x040e                  _U1EIR = 0x40e
                    0x040e                  _U1EIRbits = 0x40e
                    0x0410                  U1EIE = 0x410
                    0x0410                  _U1EIE = 0x410
                    0x0410                  _U1EIEbits = 0x410
                    0x0412                  U1STAT = 0x412
                    0x0412                  _U1STAT = 0x412
                    0x0412                  _U1STATbits = 0x412
                    0x0414                  U1CON = 0x414
                    0x0414                  _U1CON = 0x414
                    0x0414                  _U1CONbits = 0x414
                    0x0416                  U1ADDR = 0x416
                    0x0416                  _U1ADDR = 0x416
                    0x0416                  _U1ADDRbits = 0x416
                    0x0418                  U1BDTP1 = 0x418
                    0x0418                  _U1BDTP1 = 0x418
                    0x0418                  _U1BDTP1bits = 0x418
                    0x041a                  U1FRML = 0x41a
                    0x041a                  _U1FRML = 0x41a
                    0x041a                  _U1FRMLbits = 0x41a
                    0x041c                  U1FRMH = 0x41c
                    0x041c                  _U1FRMH = 0x41c
                    0x041c                  _U1FRMHbits = 0x41c
                    0x041e                  U1TOK = 0x41e
                    0x041e                  _U1TOK = 0x41e
                    0x041e                  _U1TOKbits = 0x41e
                    0x0420                  U1SOF = 0x420
                    0x0420                  _U1SOF = 0x420
                    0x0420                  _U1SOFbits = 0x420
                    0x0422                  U1BDTP2 = 0x422
                    0x0422                  _U1BDTP2 = 0x422
                    0x0422                  _U1BDTP2bits = 0x422
                    0x0424                  U1BDTP3 = 0x424
                    0x0424                  _U1BDTP3 = 0x424
                    0x0424                  _U1BDTP3bits = 0x424
                    0x0426                  U1CNFG1 = 0x426
                    0x0426                  _U1CNFG1 = 0x426
                    0x0426                  _U1CNFG1bits = 0x426
                    0x0428                  U1CNFG2 = 0x428
                    0x0428                  _U1CNFG2 = 0x428
                    0x0428                  _U1CNFG2bits = 0x428
                    0x042a                  U1EP0 = 0x42a
                    0x042a                  _U1EP0 = 0x42a
                    0x042a                  _U1EP0bits = 0x42a
                    0x042c                  U1EP1 = 0x42c
                    0x042c                  _U1EP1 = 0x42c
                    0x042c                  _U1EP1bits = 0x42c
                    0x042e                  U1EP2 = 0x42e
                    0x042e                  _U1EP2 = 0x42e
                    0x042e                  _U1EP2bits = 0x42e
                    0x0430                  U1EP3 = 0x430
                    0x0430                  _U1EP3 = 0x430
                    0x0430                  _U1EP3bits = 0x430
                    0x0432                  U1EP4 = 0x432
                    0x0432                  _U1EP4 = 0x432
                    0x0432                  _U1EP4bits = 0x432
                    0x0434                  U1EP5 = 0x434
                    0x0434                  _U1EP5 = 0x434
                    0x0434                  _U1EP5bits = 0x434
                    0x0436                  U1EP6 = 0x436
                    0x0436                  _U1EP6 = 0x436
                    0x0436                  _U1EP6bits = 0x436
                    0x0438                  U1EP7 = 0x438
                    0x0438                  _U1EP7 = 0x438
                    0x0438                  _U1EP7bits = 0x438
                    0x043a                  U1EP8 = 0x43a
                    0x043a                  _U1EP8 = 0x43a
                    0x043a                  _U1EP8bits = 0x43a
                    0x043c                  U1EP9 = 0x43c
                    0x043c                  _U1EP9 = 0x43c
                    0x043c                  _U1EP9bits = 0x43c
                    0x043e                  U1EP10 = 0x43e
                    0x043e                  _U1EP10 = 0x43e
                    0x043e                  _U1EP10bits = 0x43e
                    0x0440                  U1EP11 = 0x440
                    0x0440                  _U1EP11 = 0x440
                    0x0440                  _U1EP11bits = 0x440
                    0x0442                  U1EP12 = 0x442
                    0x0442                  _U1EP12 = 0x442
                    0x0442                  _U1EP12bits = 0x442
                    0x0444                  U1EP13 = 0x444
                    0x0444                  _U1EP13 = 0x444
                    0x0444                  _U1EP13bits = 0x444
                    0x0446                  U1EP14 = 0x446
                    0x0446                  _U1EP14 = 0x446
                    0x0446                  _U1EP14bits = 0x446
                    0x0448                  U1EP15 = 0x448
                    0x0448                  _U1EP15 = 0x448
                    0x0448                  _U1EP15bits = 0x448
                    0x0450                  DMACON = 0x450
                    0x0450                  _DMACON = 0x450
                    0x0450                  _DMACONbits = 0x450
                    0x0452                  DMABUF = 0x452
                    0x0452                  _DMABUF = 0x452
                    0x0454                  DMAL = 0x454
                    0x0454                  _DMAL = 0x454
                    0x0456                  DMAH = 0x456
                    0x0456                  _DMAH = 0x456
                    0x0458                  DMACH0 = 0x458
                    0x0458                  _DMACH0 = 0x458
                    0x0458                  _DMACH0bits = 0x458
                    0x045a                  DMAINT0 = 0x45a
                    0x045a                  _DMAINT0 = 0x45a
                    0x045a                  _DMAINT0bits = 0x45a
                    0x045c                  DMASRC0 = 0x45c
                    0x045c                  _DMASRC0 = 0x45c
                    0x045e                  DMADST0 = 0x45e
                    0x045e                  _DMADST0 = 0x45e
                    0x0460                  DMACNT0 = 0x460
                    0x0460                  _DMACNT0 = 0x460
                    0x0462                  DMACH1 = 0x462
                    0x0462                  _DMACH1 = 0x462
                    0x0462                  _DMACH1bits = 0x462
                    0x0464                  DMAINT1 = 0x464
                    0x0464                  _DMAINT1 = 0x464
                    0x0464                  _DMAINT1bits = 0x464
                    0x0466                  DMASRC1 = 0x466
                    0x0466                  _DMASRC1 = 0x466
                    0x0468                  DMADST1 = 0x468
                    0x0468                  _DMADST1 = 0x468
                    0x046a                  DMACNT1 = 0x46a
                    0x046a                  _DMACNT1 = 0x46a
                    0x046c                  DMACH2 = 0x46c
                    0x046c                  _DMACH2 = 0x46c
                    0x046c                  _DMACH2bits = 0x46c
                    0x046e                  DMAINT2 = 0x46e
                    0x046e                  _DMAINT2 = 0x46e
                    0x046e                  _DMAINT2bits = 0x46e
                    0x0470                  DMASRC2 = 0x470
                    0x0470                  _DMASRC2 = 0x470
                    0x0472                  DMADST2 = 0x472
                    0x0472                  _DMADST2 = 0x472
                    0x0474                  DMACNT2 = 0x474
                    0x0474                  _DMACNT2 = 0x474
                    0x0476                  DMACH3 = 0x476
                    0x0476                  _DMACH3 = 0x476
                    0x0476                  _DMACH3bits = 0x476
                    0x0478                  DMAINT3 = 0x478
                    0x0478                  _DMAINT3 = 0x478
                    0x0478                  _DMAINT3bits = 0x478
                    0x047a                  DMASRC3 = 0x47a
                    0x047a                  _DMASRC3 = 0x47a
                    0x047c                  DMADST3 = 0x47c
                    0x047c                  _DMADST3 = 0x47c
                    0x047e                  DMACNT3 = 0x47e
                    0x047e                  _DMACNT3 = 0x47e
                    0x0480                  DMACH4 = 0x480
                    0x0480                  _DMACH4 = 0x480
                    0x0480                  _DMACH4bits = 0x480
                    0x0482                  DMAINT4 = 0x482
                    0x0482                  _DMAINT4 = 0x482
                    0x0482                  _DMAINT4bits = 0x482
                    0x0484                  DMASRC4 = 0x484
                    0x0484                  _DMASRC4 = 0x484
                    0x0486                  DMADST4 = 0x486
                    0x0486                  _DMADST4 = 0x486
                    0x0488                  DMACNT4 = 0x488
                    0x0488                  _DMACNT4 = 0x488
                    0x048a                  DMACH5 = 0x48a
                    0x048a                  _DMACH5 = 0x48a
                    0x048a                  _DMACH5bits = 0x48a
                    0x048c                  DMAINT5 = 0x48c
                    0x048c                  _DMAINT5 = 0x48c
                    0x048c                  _DMAINT5bits = 0x48c
                    0x048e                  DMASRC5 = 0x48e
                    0x048e                  _DMASRC5 = 0x48e
                    0x0490                  DMADST5 = 0x490
                    0x0490                  _DMADST5 = 0x490
                    0x0492                  DMACNT5 = 0x492
                    0x0492                  _DMACNT5 = 0x492
                    0x0500                  U1MODE = 0x500
                    0x0500                  _U1MODE = 0x500
                    0x0500                  _U1MODEbits = 0x500
                    0x0502                  U1STA = 0x502
                    0x0502                  _U1STA = 0x502
                    0x0502                  _U1STAbits = 0x502
                    0x0504                  U1TXREG = 0x504
                    0x0504                  _U1TXREG = 0x504
                    0x0504                  _U1TXREGbits = 0x504
                    0x0506                  U1RXREG = 0x506
                    0x0506                  _U1RXREG = 0x506
                    0x0508                  U1BRG = 0x508
                    0x0508                  _U1BRG = 0x508
                    0x050a                  U1ADMD = 0x50a
                    0x050a                  _U1ADMD = 0x50a
                    0x050a                  _U1ADMDbits = 0x50a
                    0x050c                  U1SCCON = 0x50c
                    0x050c                  _U1SCCON = 0x50c
                    0x050c                  _U1SCCONbits = 0x50c
                    0x050e                  U1SCINT = 0x50e
                    0x050e                  _U1SCINT = 0x50e
                    0x050e                  _U1SCINTbits = 0x50e
                    0x0510                  U1GTC = 0x510
                    0x0510                  _U1GTC = 0x510
                    0x0510                  _U1GTCbits = 0x510
                    0x0512                  U1WTCL = 0x512
                    0x0512                  _U1WTCL = 0x512
                    0x0512                  _U1WTCLbits = 0x512
                    0x0514                  U1WTCH = 0x514
                    0x0514                  _U1WTCH = 0x514
                    0x0514                  _U1WTCHbits = 0x514
                    0x0516                  U2MODE = 0x516
                    0x0516                  _U2MODE = 0x516
                    0x0516                  _U2MODEbits = 0x516
                    0x0518                  U2STA = 0x518
                    0x0518                  _U2STA = 0x518
                    0x0518                  _U2STAbits = 0x518
                    0x051a                  U2TXREG = 0x51a
                    0x051a                  _U2TXREG = 0x51a
                    0x051a                  _U2TXREGbits = 0x51a
                    0x051c                  U2RXREG = 0x51c
                    0x051c                  _U2RXREG = 0x51c
                    0x051e                  U2BRG = 0x51e
                    0x051e                  _U2BRG = 0x51e
                    0x0520                  U2ADMD = 0x520
                    0x0520                  _U2ADMD = 0x520
                    0x0520                  _U2ADMDbits = 0x520
                    0x0522                  U2SCCON = 0x522
                    0x0522                  _U2SCCON = 0x522
                    0x0522                  _U2SCCONbits = 0x522
                    0x0524                  U2SCINT = 0x524
                    0x0524                  _U2SCINT = 0x524
                    0x0524                  _U2SCINTbits = 0x524
                    0x0526                  U2GTC = 0x526
                    0x0526                  _U2GTC = 0x526
                    0x0526                  _U2GTCbits = 0x526
                    0x0528                  U2WTCL = 0x528
                    0x0528                  _U2WTCL = 0x528
                    0x0528                  _U2WTCLbits = 0x528
                    0x052a                  U2WTCH = 0x52a
                    0x052a                  _U2WTCH = 0x52a
                    0x052a                  _U2WTCHbits = 0x52a
                    0x052c                  U3MODE = 0x52c
                    0x052c                  _U3MODE = 0x52c
                    0x052c                  _U3MODEbits = 0x52c
                    0x052e                  U3STA = 0x52e
                    0x052e                  _U3STA = 0x52e
                    0x052e                  _U3STAbits = 0x52e
                    0x0530                  U3TXREG = 0x530
                    0x0530                  _U3TXREG = 0x530
                    0x0530                  _U3TXREGbits = 0x530
                    0x0532                  U3RXREG = 0x532
                    0x0532                  _U3RXREG = 0x532
                    0x0534                  U3BRG = 0x534
                    0x0534                  _U3BRG = 0x534
                    0x0536                  U3ADMD = 0x536
                    0x0536                  _U3ADMD = 0x536
                    0x0536                  _U3ADMDbits = 0x536
                    0x0538                  U4MODE = 0x538
                    0x0538                  _U4MODE = 0x538
                    0x0538                  _U4MODEbits = 0x538
                    0x053a                  U4STA = 0x53a
                    0x053a                  _U4STA = 0x53a
                    0x053a                  _U4STAbits = 0x53a
                    0x053c                  U4TXREG = 0x53c
                    0x053c                  _U4TXREG = 0x53c
                    0x053c                  _U4TXREGbits = 0x53c
                    0x053e                  U4RXREG = 0x53e
                    0x053e                  _U4RXREG = 0x53e
                    0x0540                  U4BRG = 0x540
                    0x0540                  _U4BRG = 0x540
                    0x0542                  U4ADMD = 0x542
                    0x0542                  _U4ADMD = 0x542
                    0x0542                  _U4ADMDbits = 0x542
                    0x0760                  NVMCON = 0x760
                    0x0760                  _NVMCON = 0x760
                    0x0760                  _NVMCONbits = 0x760
                    0x0766                  NVMKEY = 0x766
                    0x0766                  _NVMKEY = 0x766
                    0x02ae                  IC1 = 0x2ae
                    0x02ae                  _IC1 = 0x2ae
                    0x02b6                  IC2 = 0x2b6
                    0x02b6                  _IC2 = 0x2b6
                    0x02be                  IC3 = 0x2be
                    0x02be                  _IC3 = 0x2be
                    0x02c6                  IC4 = 0x2c6
                    0x02c6                  _IC4 = 0x2c6
                    0x02ce                  IC5 = 0x2ce
                    0x02ce                  _IC5 = 0x2ce
                    0x02d6                  IC6 = 0x2d6
                    0x02d6                  _IC6 = 0x2d6
                    0x0272                  OC1 = 0x272
                    0x0272                  _OC1 = 0x272
                    0x027c                  OC2 = 0x27c
                    0x027c                  _OC2 = 0x27c
                    0x0286                  OC3 = 0x286
                    0x0286                  _OC3 = 0x286
                    0x0290                  OC4 = 0x290
                    0x0290                  _OC4 = 0x290
                    0x029a                  OC5 = 0x29a
                    0x029a                  _OC5 = 0x29a
                    0x02a4                  OC6 = 0x2a4
                    0x02a4                  _OC6 = 0x2a4
                    0x0500                  UART1 = 0x500
                    0x0500                  _UART1 = 0x500
                    0x0516                  UART2 = 0x516
                    0x0516                  _UART2 = 0x516
START GROUP
LOAD /opt/microchip/xc16/v1.25/bin/bin/../../lib/libpic30-elf.a
LOAD /opt/microchip/xc16/v1.25/bin/bin/../../lib/libm-elf.a
LOAD /opt/microchip/xc16/v1.25/bin/bin/../../lib/libc-elf.a
END GROUP
OUTPUT(dist/default/production/EthernetENC28J60.X.production.elf elf32-pic30)
LOAD default_isr
LOAD data_init

.debug_pubtypes
                  0x0001f8       0x143a
 .debug_pubtypes
                  0x0001f8         0xaf build/default/production/tcpip/src/arp.o
 .debug_pubtypes
                  0x0002a7         0x2c build/default/production/tcpip/src/common/delay.o
 .debug_pubtypes
                  0x0002d3        0x1b8 build/default/production/ENC28J60.o
 .debug_pubtypes
                  0x00048b         0x96 build/default/production/tcpip/src/common/helpers.o
 .debug_pubtypes
                  0x000521         0xa6 build/default/production/tcpip/src/icmp.o
 .debug_pubtypes
                  0x0005c7         0xbd build/default/production/tcpip/src/ip.o
 .debug_pubtypes
                  0x000684         0xad build/default/production/tcpip/src/common/stack_task.o
 .debug_pubtypes
                  0x000731         0xc3 build/default/production/tcpip/src/common/tick.o
 .debug_pubtypes
                  0x0007f4        0x128 build/default/production/tcpip/src/udp.o
 .debug_pubtypes
                  0x00091c        0x16f build/default/production/tcpip/src/tcp.o
 .debug_pubtypes
                  0x000a8b        0x10c build/default/production/tcpip/src/dhcp_client.o
 .debug_pubtypes
                  0x000b97         0x57 build/default/production/tcpip/src/telnet.o
 .debug_pubtypes
                  0x000bee         0x60 build/default/production/usb_descriptors.o
 .debug_pubtypes
                  0x000c4e        0x272 build/default/production/usb/src/usb_device.o
 .debug_pubtypes
                  0x000ec0         0x12 build/default/production/usb/src/usb_device_generic.o
 .debug_pubtypes
                  0x000ed2        0x14a build/default/production/usb_fonctions.o
 .debug_pubtypes
                  0x00101c        0x12b build/default/production/EthernetENCJ28J60.o
 .debug_pubtypes
                  0x001147        0x243 build/default/production/mcc_generated_files/pin_manager.o
 .debug_pubtypes
                  0x00138a         0x87 build/default/production/tcpEtower.o
 .debug_pubtypes
                  0x001411         0xc4 build/default/production/irtx.o
 .debug_pubtypes
                  0x0014d5         0xb9 build/default/production/irrx.o
 .debug_pubtypes
                  0x00158e         0x67 build/default/production/terminal.o
 .debug_pubtypes
                  0x0015f5         0x3d build/default/production/ir.o

__c30_signature
                  0x001632        0x1e6
 __c30_signature
                  0x001632          0x6 build/default/production/tcpip/src/arp.o
 __c30_signature
                  0x001638          0x6 build/default/production/tcpip/src/common/delay.o
 __c30_signature
                  0x00163e          0x6 build/default/production/ENC28J60.o
 __c30_signature
                  0x001644          0x6 build/default/production/tcpip/src/common/helpers.o
 __c30_signature
                  0x00164a          0x6 build/default/production/tcpip/src/icmp.o
 __c30_signature
                  0x001650          0x6 build/default/production/tcpip/src/ip.o
 __c30_signature
                  0x001656          0x6 build/default/production/tcpip/src/common/stack_task.o
 __c30_signature
                  0x00165c          0x6 build/default/production/tcpip/src/common/tick.o
 __c30_signature
                  0x001662          0x6 build/default/production/tcpip/src/udp.o
 __c30_signature
                  0x001668          0x6 build/default/production/tcpip/src/tcp.o
 __c30_signature
                  0x00166e          0x6 build/default/production/tcpip/src/dhcp_client.o
 __c30_signature
                  0x001674          0x6 build/default/production/tcpip/src/telnet.o
 __c30_signature
                  0x00167a          0x6 build/default/production/usb_descriptors.o
 __c30_signature
                  0x001680          0x6 build/default/production/usb/src/usb_device.o
 __c30_signature
                  0x001686          0x6 build/default/production/usb/src/usb_device_generic.o
 __c30_signature
                  0x00168c          0x6 build/default/production/usb_fonctions.o
 __c30_signature
                  0x001692          0x6 build/default/production/EthernetENCJ28J60.o
 __c30_signature
                  0x001698          0x6 build/default/production/mcc_generated_files/pin_manager.o
 __c30_signature
                  0x00169e          0x6 build/default/production/tcpEtower.o
 __c30_signature
                  0x0016a4          0x6 build/default/production/irtx.o
 __c30_signature
                  0x0016aa          0x6 build/default/production/irrx.o
 __c30_signature
                  0x0016b0          0x6 build/default/production/terminal.o
 __c30_signature
                  0x0016b6          0x6 build/default/production/ir.o
 __c30_signature
                  0x0016bc          0x6 /opt/microchip/xc16/v1.25/bin/bin/../../lib/libpic30-elf.a(crt0_extended.o)
 __c30_signature
                  0x0016c2          0x6 /opt/microchip/xc16/v1.25/bin/bin/../../lib/libpic30-elf.a(data_init_extended.o)
 __c30_signature
                  0x0016c8          0x6 /opt/microchip/xc16/v1.25/bin/bin/../../lib/libm-elf.a(divmoddi3.eo)
 __c30_signature
                  0x0016ce          0x6 /opt/microchip/xc16/v1.25/bin/bin/../../lib/libc-elf.a(memcpy.eo)
 __c30_signature
                  0x0016d4          0x6 /opt/microchip/xc16/v1.25/bin/bin/../../lib/libc-elf.a(memset.eo)
 __c30_signature
                  0x0016da          0x6 /opt/microchip/xc16/v1.25/bin/bin/../../lib/libc-elf.a(printf.eo)
 __c30_signature
                  0x0016e0          0x6 /opt/microchip/xc16/v1.25/bin/bin/../../lib/libc-elf.a(puts.eo)
 __c30_signature
                  0x0016e6          0x6 /opt/microchip/xc16/v1.25/bin/bin/../../lib/libc-elf.a(strcat.eo)
 __c30_signature
                  0x0016ec          0x6 /opt/microchip/xc16/v1.25/bin/bin/../../lib/libc-elf.a(strchr.eo)
 __c30_signature
                  0x0016f2          0x6 /opt/microchip/xc16/v1.25/bin/bin/../../lib/libc-elf.a(strcmp.eo)
 __c30_signature
                  0x0016f8          0x6 /opt/microchip/xc16/v1.25/bin/bin/../../lib/libc-elf.a(strlen.eo)
 __c30_signature
                  0x0016fe          0x6 /opt/microchip/xc16/v1.25/bin/bin/../../lib/libc-elf.a(strncpy.eo)
 __c30_signature
                  0x001704          0x6 /opt/microchip/xc16/v1.25/bin/bin/../../lib/libc-elf.a(_iob.eo)
 __c30_signature
                  0x00170a          0x6 /opt/microchip/xc16/v1.25/bin/bin/../../lib/libc-elf.a(sprintf_cdnopuxX.XXeo)
 __c30_signature
                  0x001710          0x6 /opt/microchip/xc16/v1.25/bin/bin/../../lib/libc-elf.a(sscanf_cdnopuxX.XXeo)
 __c30_signature
                  0x001716          0x6 /opt/microchip/xc16/v1.25/bin/bin/../../lib/libc-elf.a(doscan_cdnopuxX.XXeo)
 __c30_signature
                  0x00171c          0x6 /opt/microchip/xc16/v1.25/bin/bin/../../lib/libc-elf.a(doprnt_cdnopuxX.XXeo)
 __c30_signature
                  0x001722          0x6 /opt/microchip/xc16/v1.25/bin/bin/../../lib/libc-elf.a(printf_cdnopuxX.XXeo)
 __c30_signature
                  0x001728          0x6 /opt/microchip/xc16/v1.25/bin/bin/../../lib/libc-elf.a(printf_cdnopsuxX.XXeo)
 __c30_signature
                  0x00172e          0x6 /opt/microchip/xc16/v1.25/bin/bin/../../lib/libc-elf.a(printf_s.XXeo)
 __c30_signature
                  0x001734          0x6 /opt/microchip/xc16/v1.25/bin/bin/../../lib/libc-elf.a(atoi.eo)
 __c30_signature
                  0x00173a          0x6 /opt/microchip/xc16/v1.25/bin/bin/../../lib/libc-elf.a(doprnt.eo)
 __c30_signature
                  0x001740          0x6 /opt/microchip/xc16/v1.25/bin/bin/../../lib/libc-elf.a(fgetc.eo)
 __c30_signature
                  0x001746          0x6 /opt/microchip/xc16/v1.25/bin/bin/../../lib/libc-elf.a(filbuf.eo)
 __c30_signature
                  0x00174c          0x6 /opt/microchip/xc16/v1.25/bin/bin/../../lib/libc-elf.a(fputc.eo)
 __c30_signature
                  0x001752          0x6 /opt/microchip/xc16/v1.25/bin/bin/../../lib/libc-elf.a(powers.eo)
 __c30_signature
                  0x001758          0x6 /opt/microchip/xc16/v1.25/bin/bin/../../lib/libc-elf.a(ungetc.eo)
 __c30_signature
                  0x00175e          0x6 /opt/microchip/xc16/v1.25/bin/bin/../../lib/libc-elf.a(doprnt_cdnopsuxX.XXeo)
 __c30_signature
                  0x001764          0x6 /opt/microchip/xc16/v1.25/bin/bin/../../lib/libc-elf.a(doprnt_s.XXeo)
 __c30_signature
                  0x00176a          0x6 /opt/microchip/xc16/v1.25/bin/bin/../../lib/libc-elf.a(fflush.eo)
 __c30_signature
                  0x001770          0x6 /opt/microchip/xc16/v1.25/bin/bin/../../lib/libc-elf.a(flsbuf.eo)
 __c30_signature
                  0x001776          0x6 /opt/microchip/xc16/v1.25/bin/bin/../../lib/libpic30-elf.a(read.eo)
 __c30_signature
                  0x00177c          0x6 /opt/microchip/xc16/v1.25/bin/bin/../../lib/libpic30-elf.a(write.eo)
 __c30_signature
                  0x001782          0x6 /opt/microchip/xc16/v1.25/bin/bin/../../lib/libpic30-elf.a(c30_uart.eo)
 __c30_signature
                  0x001788          0x6 /opt/microchip/xc16/v1.25/bin/bin/../../lib/libm-elf.a(adddf3.eo)
 __c30_signature
                  0x00178e          0x6 /opt/microchip/xc16/v1.25/bin/bin/../../lib/libm-elf.a(deqltle.eo)
 __c30_signature
                  0x001794          0x6 /opt/microchip/xc16/v1.25/bin/bin/../../lib/libm-elf.a(dgtge.eo)
 __c30_signature
                  0x00179a          0x6 /opt/microchip/xc16/v1.25/bin/bin/../../lib/libm-elf.a(divdf3.eo)
 __c30_signature
                  0x0017a0          0x6 /opt/microchip/xc16/v1.25/bin/bin/../../lib/libm-elf.a(dne.eo)
 __c30_signature
                  0x0017a6          0x6 /opt/microchip/xc16/v1.25/bin/bin/../../lib/libm-elf.a(dpack.eo)
 __c30_signature
                  0x0017ac          0x6 /opt/microchip/xc16/v1.25/bin/bin/../../lib/libm-elf.a(dunpack2.eo)
 __c30_signature
                  0x0017b2          0x6 /opt/microchip/xc16/v1.25/bin/bin/../../lib/libm-elf.a(extendsfdf.eo)
 __c30_signature
                  0x0017b8          0x6 /opt/microchip/xc16/v1.25/bin/bin/../../lib/libm-elf.a(fixunsdfdi.eo)
 __c30_signature
                  0x0017be          0x6 /opt/microchip/xc16/v1.25/bin/bin/../../lib/libm-elf.a(fixunsdfsi.eo)
 __c30_signature
                  0x0017c4          0x6 /opt/microchip/xc16/v1.25/bin/bin/../../lib/libm-elf.a(floatundidf.eo)
 __c30_signature
                  0x0017ca          0x6 /opt/microchip/xc16/v1.25/bin/bin/../../lib/libm-elf.a(floatunsidf.eo)
 __c30_signature
                  0x0017d0          0x6 /opt/microchip/xc16/v1.25/bin/bin/../../lib/libm-elf.a(frexp.eo)
 __c30_signature
                  0x0017d6          0x6 /opt/microchip/xc16/v1.25/bin/bin/../../lib/libm-elf.a(funpack.eo)
 __c30_signature
                  0x0017dc          0x6 /opt/microchip/xc16/v1.25/bin/bin/../../lib/libm-elf.a(muldf3.eo)
 __c30_signature
                  0x0017e2          0x6 /opt/microchip/xc16/v1.25/bin/bin/../../lib/libm-elf.a(subdf3.eo)
 __c30_signature
                  0x0017e8          0x6 /opt/microchip/xc16/v1.25/bin/bin/../../lib/libm-elf.a(udivsi3.eo)
 __c30_signature
                  0x0017ee          0x6 /opt/microchip/xc16/v1.25/bin/bin/../../lib/libm-elf.a(mulsi3.eo)
 __c30_signature
                  0x0017f4          0x6 /opt/microchip/xc16/v1.25/bin/bin/../../lib/libm-elf.a(muldi3.eo)
 __c30_signature
                  0x0017fa          0x6 /opt/microchip/xc16/v1.25/bin/bin/../../lib/libm-elf.a(dcompare.eo)
 __c30_signature
                  0x001800          0x6 /opt/microchip/xc16/v1.25/bin/bin/../../lib/libm-elf.a(dpropagateNaN.eo)
 __c30_signature
                  0x001806          0x6 /opt/microchip/xc16/v1.25/bin/bin/../../lib/libm-elf.a(dtype.eo)
 __c30_signature
                  0x00180c          0x6 /opt/microchip/xc16/v1.25/bin/bin/../../lib/libm-elf.a(dunpack.eo)
 __c30_signature
                  0x001812          0x6 /opt/microchip/xc16/v1.25/bin/bin/../../lib/libm-elf.a(umuldi3.eo)

.nbss               0x1000         0x8a
 .nbss              0x1000         0x24 build/default/production/irrx.o
                    0x1000                  _write_offset
                    0x1001                  _echo_offset
                    0x1002                  _read_offset
                    0x1004                  _irrx_stack_start
                    0x1006                  _irrx_stack_end
                    0x1008                  _irrx_raw_code_extract_ptr
                    0x100a                  _irrx_write_ptr
                    0x100c                  _irrx_lasttime
                    0x1010                  _irrx_echo_enabled
                    0x1011                  _irrx_sync_enabled
                    0x1012                  _irrx_verbose
                    0x1013                  _irrx_echo_busy
                    0x1014                  _irrx_echo_timestamp
 .nbss              0x1024         0x14 build/default/production/irtx.o
                    0x1024                  _irtx_raw_offset
                    0x1025                  _tx_offset
                    0x1026                  _irtx_mode
                    0x1028                  _irtx_frequency
                    0x102a                  _irtx_duty
                    0x102c                  _irtxPhase
                    0x102e                  _irtxMaskBackup
                    0x1032                  _irtxNextDuty
                    0x1034                  _dutyOnValue
 .nbss              0x1038         0x20 build/default/production/usb/src/usb_device.o
                    0x1038                  _USBDeviceState
                    0x103a                  _USBActiveConfiguration
                    0x103b                  _USBAlternateInterface
                    0x103c                  _pBDTEntryEP0OutCurrent
                    0x103e                  _pBDTEntryEP0OutNext
                    0x1040                  _pBDTEntryOut
                    0x1044                  _pBDTEntryIn
                    0x1048                  _shortPacketStatus
                    0x1049                  _controlTransferState
                    0x104a                  _pDst
                    0x104c                  _RemoteWakeup
                    0x104d                  _USBBusIsSuspended
                    0x104e                  _USTATcopy
                    0x104f                  _endpoint_number
                    0x1050                  _BothEP0OutUOWNsSet
                    0x1051                  _USBStatusStageTimeoutCounter
                    0x1052                  _USBDeferStatusStagePacket
                    0x1053                  _USBStatusStageEnabledFlag1
                    0x1054                  _USBStatusStageEnabledFlag2
                    0x1055                  _USBDeferINDataStagePackets
                    0x1056                  _USBDeferOUTDataStagePackets
 .nbss              0x1058          0xc build/default/production/tcpip/src/udp.o
                    0x1058                  _activeUDPSocket
                    0x105a                  _UDPTxCount
                    0x105c                  _UDPRxCount
 .nbss              0x1064          0xc build/default/production/usb_fonctions.o
                    0x1064                  _length
                    0x1065                  _queueWriteOffset
                    0x1066                  _queueNextWriteOffset
 .nbss              0x1070          0xa build/default/production/tcpip/src/icmp.o
 .nbss              0x107a          0x8 build/default/production/ENC28J60.o
 .nbss              0x1082          0x8 build/default/production/terminal.o
                    0x1082                  _terminal_current_string
                    0x1084                  _terminal_next_string
                    0x1086                  _terminal_position
                    0x1088                  _terminal_count

.ndata              0x108a          0x4
 .ndata             0x108a          0x4 build/default/production/tcpip/src/common/helpers.o

.nbss               0x108e         0x12
 .nbss              0x108e          0x4 build/default/production/tcpip/src/ip.o
 .nbss              0x1092          0x4 build/default/production/tcpip/src/common/stack_task.o
 .nbss              0x1096          0x4 build/default/production/tcpip/src/common/tick.o
 .nbss              0x109a          0x4 build/default/production/EthernetENCJ28J60.o
                    0x109a                  _result
 .nbss              0x109e          0x2 build/default/production/tcpip/src/arp.o

.ndata              0x10a0          0x2
 .ndata             0x10a0          0x2 build/default/production/tcpip/src/udp.o

_0xf670fcf0573341a0
                    0x10a2          0x2
 _0xf670fcf0573341a0
                    0x10a2          0x2 build/default/production/tcpip/src/udp.o

_0xf669fa6c573341a0
                    0x10a4          0x2
 _0xf669fa6c573341a0
                    0x10a4          0x2 build/default/production/tcpip/src/tcp.o

.ndata              0x10a6          0x2
 .ndata             0x10a6          0x2 build/default/production/tcpip/src/tcp.o

.nbss               0x10a8          0x6
 .nbss              0x10a8          0x2 build/default/production/tcpip/src/dhcp_client.o
                    0x10a8                  _DHCPClientInitializedOnce
 .nbss              0x10aa          0x2 build/default/production/tcpip/src/telnet.o
 .nbss              0x10ac          0x2 build/default/production/tcpEtower.o

.ndata              0x10ae          0x4
 .ndata             0x10ae          0x2 build/default/production/tcpEtower.o
                    0x10ae                  _MySocket
 .ndata             0x10b0          0x2 build/default/production/irrx.o
                    0x10b0                  _irrx_is_timeout

.bss                0x10b2        0xc74
 .bss               0x10b2        0x824 build/default/production/irrx.o
                    0x10b2                  _rx_stack
                    0x14b2                  _irrxString
                    0x15b2                  _irrx_echo_rawcode
 .bss               0x18d6        0x2a2 build/default/production/usb_fonctions.o
                    0x18d6                  _myString
                    0x18f4                  _USB_In_Stack
 .bss               0x1b78        0x1ae build/default/production/irtx.o
                    0x1b78                  _irtx_raw_code
                    0x1d0a                  _irtxParameters

.data               0x1d26        0x160
 .data              0x1d26        0x160 /opt/microchip/xc16/v1.25/bin/bin/../../lib/libc-elf.a(powers.eo)
                    0x1d26                  __powers_
                    0x1dd6                  __npowers_

.bss                0x1e86        0x206
 .bss               0x1e86        0x106 build/default/production/tcpip/src/tcp.o
 .bss               0x1f8c        0x100 build/default/production/terminal.o
                    0x1f8c                  _terminal_line

.data               0x208c        0x316
 .data              0x208c         0xca /opt/microchip/xc16/v1.25/bin/bin/../../lib/libc-elf.a(doprnt_cdnopuxX.XXeo)
 .data              0x2156         0xca /opt/microchip/xc16/v1.25/bin/bin/../../lib/libc-elf.a(doprnt.eo)
 .data              0x2220         0xca /opt/microchip/xc16/v1.25/bin/bin/../../lib/libc-elf.a(doprnt_cdnopsuxX.XXeo)
 .data              0x22ea         0xb8 /opt/microchip/xc16/v1.25/bin/bin/../../lib/libc-elf.a(doprnt_s.XXeo)

.bss                0x23a2         0x3a
 .bss               0x23a2         0x3a build/default/production/EthernetENCJ28J60.o
                    0x23a2                  _AppConfig
                    0x23d6                  _broadcast

.data               0x23dc         0x26
 .data              0x23dc         0x26 /opt/microchip/xc16/v1.25/bin/bin/../../lib/libc-elf.a(_iob.eo)
                    0x23dc                  __iob
                    0x2400                  __Files

_0xf6736114573341a2
                    0x2600         0x10
 _0xf6736114573341a2
                    0x2600         0x10 build/default/production/usb/src/usb_device.o
                    0x2600                  _BDT

.bss                0x2610         0x9e
 .bss               0x2610         0x30 build/default/production/tcpip/src/udp.o
                    0x2610                  _UDPSocketInfo
 .bss               0x2640         0x24 build/default/production/tcpip/src/dhcp_client.o
 .bss               0x2664         0x22 build/default/production/usb/src/usb_device.o
                    0x2664                  _inPipes
                    0x266a                  _outPipes
                    0x2671                  _ep_data_in
                    0x2673                  _ep_data_out
                    0x2675                  _SetupPkt
                    0x267d                  _CtrlTrfData
 .bss               0x2686         0x14 build/default/production/tcpip/src/arp.o
 .bss               0x269a          0xa build/default/production/tcpip/src/icmp.o
 .bss               0x26a4          0xa build/default/production/tcpip/src/common/stack_task.o
                    0x26a4                  _remoteNode

_0xf66afa6c5733419f
                    0x26ae          0x6
 _0xf66afa6c5733419f
                    0x26ae          0x6 build/default/production/tcpip/src/common/tick.o

.bss                0x26b4          0xe
 .bss               0x26b4          0x6 build/default/production/tcpip/src/telnet.o
 .bss               0x26ba          0x6 /opt/microchip/xc16/v1.25/bin/bin/../../lib/libc-elf.a(_iob.eo)
                    0x26ba                  __outdone
                    0x26bb                  __sibuf
                    0x26bd                  __sobuf
 .bss               0x26c0          0x2 /opt/microchip/xc16/v1.25/bin/bin/../../lib/libc-elf.a(doscan_cdnopuxX.XXeo)

.data               0x26c2          0x2
 .data              0x26c2          0x2 /opt/microchip/xc16/v1.25/bin/bin/../../lib/libpic30-elf.a(c30_uart.eo)
                    0x26c2                  ___C30_UART

.config_JTAGEN    0x0157fe          0x2
 .config_JTAGEN
                  0x0157fe          0x2 build/default/production/EthernetENCJ28J60.o

.config_IESO      0x0157fc          0x2
 .config_IESO     0x0157fc          0x2 build/default/production/EthernetENCJ28J60.o

.config_WPEND     0x0157fa          0x2
 .config_WPEND    0x0157fa          0x2 build/default/production/EthernetENCJ28J60.o

.config_IOL1WAY
                  0x0157f8          0x2
 .config_IOL1WAY
                  0x0157f8          0x2 build/default/production/EthernetENCJ28J60.o

.const              0xcdfe        0x5fa load address 0x014dfe  
 .const             0xcdfe        0x2b2 build/default/production/terminal.o
 .const             0xd0b0        0x1a6 build/default/production/tcpip/src/telnet.o
 .const             0xd256         0x80 build/default/production/usb_descriptors.o
                    0xd256                  _device_dsc
                    0xd268                  _configDescriptor1
                    0xd288                  _sd000
                    0xd28c                  _sd001
                    0xd2aa                  _sd002
                    0xd2ce                  _USB_CD_Ptr
                    0xd2d0                  _USB_SD_Ptr
 .const             0xd2d6         0x80 build/default/production/irrx.o
 .const             0xd356         0x54 build/default/production/ir.o
 .const             0xd3aa         0x26 build/default/production/EthernetENCJ28J60.o
 .const             0xd3d0         0x18 build/default/production/tcpip/src/tcp.o
                    0xd3d0                  _TCPSocketInitializer
 .const             0xd3e8         0x10 build/default/production/irtx.o

.text             0x007b98       0x58f4
 .text            0x007b98       0x21fc build/default/production/tcpip/src/tcp.o
                  0x007c42                  _TCPInit
                  0x007d0c                  _TCPOpen
                  0x007e1e                  _TCPWasReset
                  0x007e4a                  _TCPIsConnected
                  0x007e6e                  _TCPDisconnect
                  0x007f02                  _TCPClose
                  0x007f22                  _TCPGetRemoteInfo
                  0x007f48                  _TCPFlush
                  0x007f6e                  _TCPIsPutReady
                  0x007fba                  _TCPPut
                  0x008052                  _TCPPutArray
                  0x008124                  _TCPPutString
                  0x00813e                  _TCPGetTxFIFOFull
                  0x008166                  _TCPDiscard
                  0x008184                  _TCPIsGetReady
                  0x0081ba                  _TCPGet
                  0x00822a                  _TCPGetArray
                  0x0082ea                  _TCPGetRxFIFOFree
                  0x008310                  _TCPPeekArray
                  0x0083b2                  _TCPPeek
                  0x0083c8                  _TCPFindArrayEx
                  0x008638                  _TCPFindEx
                  0x008658                  _TCPTick
                  0x008aa6                  _TCPProcess
                  0x009ba8                  _TCPAdjustFIFOSize
 .text            0x009d94        0xe3a build/default/production/usb/src/usb_device.o
                  0x009d94                  _USBDeviceInit
                  0x009e7c                  _USBDeviceTasks
                  0x009fd4                  _USBEnableEndpoint
                  0x00a00e                  _USBTransferOnePacket
                  0x00a0bc                  _USBStallEndpoint
                  0x00a12a                  _USBCancelIO
                  0x00a192                  _USBCtrlEPAllowStatusStage
                  0x00a1ea                  _USBCtrlEPAllowDataStage
 .text            0x00abce        0xcdc build/default/production/ENC28J60.o
                  0x00abce                  _MACInit
                  0x00acfe                  _MACIsLinked
                  0x00ad1c                  _MACIsTxReady
                  0x00ad34                  _MACDiscardRx
                  0x00ad70                  _MACGetFreeRxSize
                  0x00adee                  _MACGetHeader
                  0x00ae8c                  _MACPutHeader
                  0x00aede                  _MACFlush
                  0x00b008                  _MACSetReadPtrInRx
                  0x00b03a                  _MACSetWritePtr
                  0x00b06c                  _MACSetReadPtr
                  0x00b09e                  _MACCalcRxChecksum
                  0x00b0fe                  _CalcIPBufferChecksum
                  0x00b1aa                  _MACMemCopyAsync
                  0x00b392                  _MACIsMemCopyDone
                  0x00b3aa                  _MACGet
                  0x00b3da                  _MACGetArray
                  0x00b4b2                  _MACPut
                  0x00b4ea                  _MACPutArray
                  0x00b692                  _ReadPHYReg
                  0x00b7ce                  _WritePHYReg
                  0x00b826                  _MACPowerDown
                  0x00b858                  _MACPowerUp
                  0x00b87a                  _SetCLKOUT
                  0x00b890                  _GetCLKOUT
 .text            0x00b8aa        0x984 build/default/production/tcpip/src/dhcp_client.o
                  0x00b8aa                  _DHCPInit
                  0x00b904                  _DHCPDisable
                  0x00b924                  _DHCPEnable
                  0x00b944                  _DHCPIsEnabled
                  0x00b958                  _DHCPIsBound
                  0x00b970                  _DHCPStateChanged
                  0x00b98c                  _DHCPIsServerDetected
                  0x00b9a6                  _DHCPTempIPAddr
                  0x00b9e8                  _DHCPTask
 .text            0x00c22e        0x708 build/default/production/tcpip/src/common/helpers.o
                  0x00c22e                  _LFSRSeedRand
                  0x00c26e                  _LFSRRand
                  0x00c2dc                  _GenerateRandomDWORD
                  0x00c3c6                  _StringToIPAddress
                  0x00c542                  _uitoa
                  0x00c5c4                  _hexatob
                  0x00c62c                  _btohexa_high
                  0x00c64a                  _btohexa_low
                  0x00c666                  _stricmppgm2ram
                  0x00c6fc                  _swaps
                  0x00c716                  _swapl
                  0x00c774                  _CalcIPChecksum
                  0x00c7f4                  _strupr
                  0x00c832                  _FormatNetBIOSName
                  0x00c876                  _strnchr
                  0x00c8c2                  _strncpy_m
 .text            0x00c936        0x5d4 build/default/production/tcpip/src/udp.o
                  0x00c936                  _UDPInit
                  0x00c950                  _UDPOpenEx
                  0x00ca1c                  _UDPTask
                  0x00cb58                  _UDPIsOpened
                  0x00cb7a                  _UDPClose
                  0x00cbb6                  _UDPSetTxBuffer
                  0x00cbc8                  _UDPSetRxBuffer
                  0x00cbda                  _UDPIsPutReady
                  0x00cc0c                  _UDPPut
                  0x00cc38                  _UDPPutArray
                  0x00cc70                  _UDPPutString
                  0x00cc84                  _UDPFlush
                  0x00ccd0                  _UDPIsGetReady
                  0x00ccfc                  _UDPGet
                  0x00cd28                  _UDPGetArray
                  0x00cd6c                  _UDPDiscard
                  0x00cd84                  _UDPProcess
 .text            0x00cf0a        0x582 build/default/production/irrx.o
                  0x00cf0a                  _irrx_init
                  0x00cf20                  _irrx_task
                  0x00cf80                  _irrx_int
                  0x00cfa0                  _irrx_append_data_stack
                  0x00cfc6                  _irrx_get_duration
                  0x00d01e                  _irrx_get_time_elapsed
                  0x00d02a                  _irrx_get_time_elapsed_since
                  0x00d07e                  _irrx_print_fifo
                  0x00d0ee                  _irrx_reset_data_text
                  0x00d104                  _irrx_flush_data_text
                  0x00d122                  _irrx_append_data_text
                  0x00d15a                  _irrx_flush_data_code
                  0x00d176                  _irrx_set_verbose
                  0x00d184                  _irrx_set_echo
                  0x00d192                  _irrx_set_sync
                  0x00d1a0                  _ir_sync_rx_tx
                  0x00d1b4                  _irrx_decode
                  0x00d272                  _irrx_decode_space_encoded
                  0x00d2f6                  _irrx_echo
                  0x00d312                  _irrx_extract_raw_code
                  0x00d3f2                  _irrx_handle_raw_code
                  0x00d412                  _ir_echo_rawcode_init
                  0x00d442                  _ir_echo_rawcode_task

.dinit            0x00d48c        0x438
 .dinit           0x00d48c        0x438 data_init

.text             0x00d8c4       0x1a32
 .text            0x00d8c4        0x38c build/default/production/terminal.o
                  0x00d8c4                  _terminal_exec
                  0x00d922                  _terminal_extract_string
                  0x00d950                  _terminal_serialize
                  0x00d9b6                  _terminal_flush
                  0x00d9ca                  _terminal_reset_line
                  0x00d9f0                  _terminal_level2_led
                  0x00da86                  _terminal_level2_irrx
                  0x00dada                  _terminal_level3_irrx_verbose
                  0x00db02                  _terminal_level3_irrx_set_sync
                  0x00db40                  _terminal_level2_irtx
                  0x00dba2                  _terminal_level3_irtx_set_frequency
                  0x00dbfc                  _terminal_level3_irtx_send_raw
 .text            0x00dc50        0x332 build/default/production/tcpip/src/arp.o
                  0x00dc50                  _ARPSendPkt
                  0x00dd04                  _ARPInit
                  0x00dd36                  _ARPProcess
                  0x00ddfc                  _ARPResolve
                  0x00deae                  _ARPIsResolved
                  0x00df5c                  _SwapARPPacket
 .text            0x00df82        0x30e build/default/production/usb_fonctions.o
                  0x00df82                  _usbRx
                  0x00e06c                  _stackUSBPacket
                  0x00e0ca                  _usbTx
                  0x00e14c                  _copyArray
                  0x00e188                  _usbPrint
                  0x00e1da                  _USBCBSuspend
                  0x00e1e0                  _USBCBWakeFromSuspend
                  0x00e1e6                  _USBCB_SOF_Handler
                  0x00e1ec                  _USBCBErrorHandler
                  0x00e1f2                  _USBCBCheckOtherReq
                  0x00e1f8                  _USBCBStdSetDscHandler
                  0x00e1fe                  _USBCBInitEP
                  0x00e20a                  _USBCBSendResume
                  0x00e246                  _USER_USB_CALLBACK_EVENT_HANDLER
 .text            0x00e290        0x2e0 build/default/production/irtx.o
                  0x00e290                  _irtxInit
                  0x00e2a0                  _irtx_on
                  0x00e2aa                  _irtx_off
                  0x00e2b2                  _irtxSend
                  0x00e2fc                  _irtx_send_raw_code
                  0x00e324                  _intIrTx
                  0x00e340                  _irtx_int_space_code
                  0x00e4bc                  _irtx_int_raw_code
                  0x00e542                  _irtx_set_frequency_duty
 .text            0x00e570        0x28e build/default/production/tcpip/src/telnet.o
                  0x00e570                  _TelnetTask
 .text            0x00e7fe        0x260 build/default/production/tcpip/src/common/stack_task.o
                  0x00e7fe                  _StackInit
                  0x00e838                  _StackTask
                  0x00ea56                  _StackApplications
 .text            0x00ea5e        0x1c8 build/default/production/tcpip/src/icmp.o
                  0x00ea5e                  _ICMPProcess
                  0x00eb26                  _ICMPSendPing
                  0x00eb40                  _ICMPGetReply
                  0x00ec08                  _ICMPBeginUsage
                  0x00ec1e                  _ICMPEndUsage
 .text            0x00ec26        0x182 build/default/production/tcpip/src/ip.o
                  0x00ec26                  _IPGetHeader
                  0x00ecd8                  _IPPutHeader
                  0x00ed72                  _IPSetRxBuffer
 .text            0x00eda8        0x17a build/default/production/EthernetENCJ28J60.o
                  0x00eda8                  _main
                  0x00ee28                  _heartBeat
                  0x00ee5c                  _userHandlePacket
                  0x00eec6                  __T3Interrupt
                  0x00eef4                  __IC1Interrupt
 .text            0x00ef22        0x150 build/default/production/tcpip/src/common/tick.o
                  0x00ef22                  _TickInit
                  0x00efa6                  _TickGet
                  0x00efd6                  _TickGetDiv256
                  0x00f006                  _TickGetDiv64K
                  0x00f036                  _TickConvertToMilliseconds
                  0x00f05a                  __T1Interrupt
 .text            0x00f072         0xf8 build/default/production/mcc_generated_files/pin_manager.o
                  0x00f072                  _PIN_MANAGER_Initialize
 .text            0x00f16a         0x98 build/default/production/tcpEtower.o
                  0x00f16a                  _eTowerTCPServerInit
                  0x00f174                  _eTowerTCPServer
                  0x00f1e0                  _eTowerTCPPrint
                  0x00f1f8                  _eTowerTxAvailable
 .text            0x00f202         0x88 build/default/production/ir.o
                  0x00f202                  _ir_print_raw_code
 .text            0x00f28a         0x6c build/default/production/tcpip/src/common/delay.o
                  0x00f28a                  _DelayMs
                  0x00f2c4                  _Delay10us
